
Final.elf:     file format elf32-littlenios2
Final.elf
architecture: nios2:r1, flags 0x00000112:
EXEC_P, HAS_SYMS, D_PAGED
start address 0x00000230

Program Header:
    LOAD off    0x00001000 vaddr 0x00000000 paddr 0x00000000 align 2**12
         filesz 0x00000020 memsz 0x00000020 flags r-x
    LOAD off    0x00001020 vaddr 0x00000020 paddr 0x00000020 align 2**12
         filesz 0x000185fc memsz 0x000185fc flags r-x
    LOAD off    0x0001961c vaddr 0x0001861c paddr 0x0001a250 align 2**12
         filesz 0x00001c34 memsz 0x00001c34 flags rw-
    LOAD off    0x0001be84 vaddr 0x0001be84 paddr 0x0001be84 align 2**12
         filesz 0x00000000 memsz 0x000002f0 flags rw-

Sections:
Idx Name          Size      VMA       LMA       File off  Algn
  0 .entry        00000020  00000000  00000000  00001000  2**5
                  CONTENTS, ALLOC, LOAD, READONLY, CODE
  1 .exceptions   00000210  00000020  00000020  00001020  2**2
                  CONTENTS, ALLOC, LOAD, READONLY, CODE
  2 .text         00017fc0  00000230  00000230  00001230  2**2
                  CONTENTS, ALLOC, LOAD, READONLY, CODE
  3 .rodata       0000042c  000181f0  000181f0  000191f0  2**2
                  CONTENTS, ALLOC, LOAD, READONLY, DATA
  4 .rwdata       00001c34  0001861c  0001a250  0001961c  2**2
                  CONTENTS, ALLOC, LOAD, DATA, SMALL_DATA
  5 .bss          000002f0  0001be84  0001be84  0001be84  2**2
                  ALLOC, SMALL_DATA
  6 .SDRAM        00000000  0001c174  0001c174  0001b250  2**0
                  CONTENTS
  7 .Onchip_SRAM  00000000  08000000  08000000  0001b250  2**0
                  CONTENTS
  8 .comment      00000023  00000000  00000000  0001b250  2**0
                  CONTENTS, READONLY
  9 .debug_aranges 000011b8  00000000  00000000  0001b278  2**3
                  CONTENTS, READONLY, DEBUGGING
 10 .debug_info   0002cd5d  00000000  00000000  0001c430  2**0
                  CONTENTS, READONLY, DEBUGGING
 11 .debug_abbrev 0000b299  00000000  00000000  0004918d  2**0
                  CONTENTS, READONLY, DEBUGGING
 12 .debug_line   0000ee2e  00000000  00000000  00054426  2**0
                  CONTENTS, READONLY, DEBUGGING
 13 .debug_frame  00003420  00000000  00000000  00063254  2**2
                  CONTENTS, READONLY, DEBUGGING
 14 .debug_str    00005044  00000000  00000000  00066674  2**0
                  CONTENTS, READONLY, DEBUGGING
 15 .debug_loc    0001cdee  00000000  00000000  0006b6b8  2**0
                  CONTENTS, READONLY, DEBUGGING
 16 .debug_alt_sim_info 00000040  00000000  00000000  000884a8  2**2
                  CONTENTS, READONLY, DEBUGGING
 17 .debug_ranges 00001b58  00000000  00000000  000884e8  2**3
                  CONTENTS, READONLY, DEBUGGING
 18 .thread_model 00000003  00000000  00000000  0008e8ae  2**0
                  CONTENTS, READONLY
 19 .cpu          00000005  00000000  00000000  0008e8b1  2**0
                  CONTENTS, READONLY
 20 .qsys         00000001  00000000  00000000  0008e8b6  2**0
                  CONTENTS, READONLY
 21 .simulation_enabled 00000001  00000000  00000000  0008e8b7  2**0
                  CONTENTS, READONLY
 22 .sysid_hash   00000004  00000000  00000000  0008e8b8  2**0
                  CONTENTS, READONLY
 23 .sysid_base   00000004  00000000  00000000  0008e8bc  2**0
                  CONTENTS, READONLY
 24 .sysid_time   00000004  00000000  00000000  0008e8c0  2**0
                  CONTENTS, READONLY
 25 .stderr_dev   00000009  00000000  00000000  0008e8c4  2**0
                  CONTENTS, READONLY
 26 .stdin_dev    00000009  00000000  00000000  0008e8cd  2**0
                  CONTENTS, READONLY
 27 .stdout_dev   00000009  00000000  00000000  0008e8d6  2**0
                  CONTENTS, READONLY
 28 .sopc_system_name 0000000f  00000000  00000000  0008e8df  2**0
                  CONTENTS, READONLY
 29 .quartus_project_dir 0000005f  00000000  00000000  0008e8ee  2**0
                  CONTENTS, READONLY
 30 .jdi          00007beb  00000000  00000000  0008e94d  2**0
                  CONTENTS, READONLY
 31 .sopcinfo     000cd470  00000000  00000000  00096538  2**0
                  CONTENTS, READONLY
SYMBOL TABLE:
00000000 l    d  .entry	00000000 .entry
00000020 l    d  .exceptions	00000000 .exceptions
00000230 l    d  .text	00000000 .text
000181f0 l    d  .rodata	00000000 .rodata
0001861c l    d  .rwdata	00000000 .rwdata
0001be84 l    d  .bss	00000000 .bss
0001c174 l    d  .SDRAM	00000000 .SDRAM
08000000 l    d  .Onchip_SRAM	00000000 .Onchip_SRAM
00000000 l    d  .comment	00000000 .comment
00000000 l    d  .debug_aranges	00000000 .debug_aranges
00000000 l    d  .debug_info	00000000 .debug_info
00000000 l    d  .debug_abbrev	00000000 .debug_abbrev
00000000 l    d  .debug_line	00000000 .debug_line
00000000 l    d  .debug_frame	00000000 .debug_frame
00000000 l    d  .debug_str	00000000 .debug_str
00000000 l    d  .debug_loc	00000000 .debug_loc
00000000 l    d  .debug_alt_sim_info	00000000 .debug_alt_sim_info
00000000 l    d  .debug_ranges	00000000 .debug_ranges
00000000 l    df *ABS*	00000000 ../Final_bsp//obj/HAL/src/crt0.o
00000268 l       .text	00000000 alt_after_alt_main
00000000 l    df *ABS*	00000000 alt_irq_handler.c
00000000 l    df *ABS*	00000000 alt_instruction_exception_entry.c
00000000 l    df *ABS*	00000000 adc.c
00000000 l    df *ABS*	00000000 game.c
0001be8c l     O .bss	00000004 level_count
0001a1ec l     O .rwdata	00000004 num_enemies
0001a1f0 l     O .rwdata	00000004 end_position
000181f0 l     O .rodata	0000000a enemy_colors
0001861c l     O .rwdata	00000014 level_names
00000000 l    df *ABS*	00000000 hello_world.c
00000000 l    df *ABS*	00000000 hex_display.c
00000000 l    df *ABS*	00000000 joystick.c
00000000 l    df *ABS*	00000000 lcd.c
0001beac l     O .bss	00000004 x
0001beb0 l     O .bss	00000004 y
0001beb4 l     O .bss	00000002 xtouch
0001beb6 l     O .bss	00000002 ytouch
0001bebc l     O .bss	00000004 color_index.3456
00000000 l    df *ABS*	00000000 lib2-divmod.c
00000000 l    df *ABS*	00000000 lib2-mul.c
00000000 l    df *ABS*	00000000 malloc.c
00000000 l    df *ABS*	00000000 mallocr.c
00000000 l    df *ABS*	00000000 printf.c
00000000 l    df *ABS*	00000000 rand.c
00000000 l    df *ABS*	00000000 sbrkr.c
00000000 l    df *ABS*	00000000 sprintf.c
00000000 l    df *ABS*	00000000 strcpy.c
00000000 l    df *ABS*	00000000 strlen.c
00000000 l    df *ABS*	00000000 vfprintf.c
000182ae l     O .rodata	00000010 zeroes.4389
000182be l     O .rodata	00000010 blanks.4388
00000000 l    df *ABS*	00000000 time.c
00000000 l    df *ABS*	00000000 vfprintf.c
000182ce l     O .rodata	00000010 zeroes.4404
000066f0 l     F .text	000000bc __sbprintf
000182de l     O .rodata	00000010 blanks.4403
00000000 l    df *ABS*	00000000 wsetup.c
00000000 l    df *ABS*	00000000 dtoa.c
00006900 l     F .text	00000228 quorem
00000000 l    df *ABS*	00000000 fflush.c
00000000 l    df *ABS*	00000000 findfp.c
00008458 l     F .text	00000008 __fp_unlock
0000846c l     F .text	0000019c __sinit.part.1
00008608 l     F .text	00000008 __fp_lock
00000000 l    df *ABS*	00000000 mallocr.c
00000000 l    df *ABS*	00000000 fwalk.c
00000000 l    df *ABS*	00000000 gettimeofdayr.c
00000000 l    df *ABS*	00000000 impure.c
00018a48 l     O .rwdata	00000424 impure_data
00000000 l    df *ABS*	00000000 int_errno.c
00000000 l    df *ABS*	00000000 locale.c
00018e8c l     O .rwdata	00000020 lc_ctype_charset
00018e6c l     O .rwdata	00000020 lc_message_charset
00018eac l     O .rwdata	00000038 lconv
00000000 l    df *ABS*	00000000 makebuf.c
00000000 l    df *ABS*	00000000 memchr.c
00000000 l    df *ABS*	00000000 memcpy.c
00000000 l    df *ABS*	00000000 memset.c
00000000 l    df *ABS*	00000000 mprec.c
00018310 l     O .rodata	0000000c p05.2768
00000000 l    df *ABS*	00000000 s_fpclassify.c
00000000 l    df *ABS*	00000000 stdio.c
00000000 l    df *ABS*	00000000 strcmp.c
00000000 l    df *ABS*	00000000 vfprintf.c
00018434 l     O .rodata	00000010 zeroes.4333
00018444 l     O .rodata	00000010 blanks.4332
00000000 l    df *ABS*	00000000 vfprintf.c
0000bcc0 l     F .text	000000fc __sprint_r.part.0
00018454 l     O .rodata	00000010 zeroes.4349
0000d2fc l     F .text	000000bc __sbprintf
00018464 l     O .rodata	00000010 blanks.4348
00000000 l    df *ABS*	00000000 writer.c
00000000 l    df *ABS*	00000000 closer.c
00000000 l    df *ABS*	00000000 mallocr.c
00000000 l    df *ABS*	00000000 fclose.c
00000000 l    df *ABS*	00000000 fputwc.c
00000000 l    df *ABS*	00000000 fstatr.c
00000000 l    df *ABS*	00000000 fvwrite.c
00000000 l    df *ABS*	00000000 isattyr.c
00000000 l    df *ABS*	00000000 lseekr.c
00000000 l    df *ABS*	00000000 memmove.c
00000000 l    df *ABS*	00000000 readr.c
00000000 l    df *ABS*	00000000 mallocr.c
00000000 l    df *ABS*	00000000 wbuf.c
00000000 l    df *ABS*	00000000 wcrtomb.c
00000000 l    df *ABS*	00000000 wctomb_r.c
00000000 l    df *ABS*	00000000 libgcc2.c
00000000 l    df *ABS*	00000000 libgcc2.c
00000000 l    df *ABS*	00000000 libgcc2.c
00000000 l    df *ABS*	00000000 adddf3.c
00000000 l    df *ABS*	00000000 divdf3.c
00000000 l    df *ABS*	00000000 eqdf2.c
00000000 l    df *ABS*	00000000 gedf2.c
00000000 l    df *ABS*	00000000 ledf2.c
00000000 l    df *ABS*	00000000 muldf3.c
00000000 l    df *ABS*	00000000 subdf3.c
00000000 l    df *ABS*	00000000 fixdfsi.c
00000000 l    df *ABS*	00000000 floatsidf.c
00000000 l    df *ABS*	00000000 floatunsidf.c
00000000 l    df *ABS*	00000000 libgcc2.c
00000000 l    df *ABS*	00000000 libgcc2.c
00000000 l    df *ABS*	00000000 alt_close.c
00011dfc l     F .text	0000003c alt_get_errno
00000000 l    df *ABS*	00000000 alt_dev.c
00011f10 l     F .text	0000002c alt_dev_null_write
00000000 l    df *ABS*	00000000 alt_errno.c
00000000 l    df *ABS*	00000000 alt_fstat.c
00011f3c l     F .text	0000003c alt_get_errno
00000000 l    df *ABS*	00000000 alt_gettod.c
00000000 l    df *ABS*	00000000 alt_isatty.c
00012224 l     F .text	0000003c alt_get_errno
00000000 l    df *ABS*	00000000 alt_load.c
0001230c l     F .text	00000068 alt_load_section
00000000 l    df *ABS*	00000000 alt_lseek.c
000123f8 l     F .text	0000003c alt_get_errno
00000000 l    df *ABS*	00000000 alt_main.c
00000000 l    df *ABS*	00000000 alt_malloc_lock.c
00000000 l    df *ABS*	00000000 alt_read.c
000125d4 l     F .text	0000003c alt_get_errno
00000000 l    df *ABS*	00000000 alt_release_fd.c
00000000 l    df *ABS*	00000000 alt_sbrk.c
0001a230 l     O .rwdata	00000004 heap_end
00000000 l    df *ABS*	00000000 alt_tick.c
00000000 l    df *ABS*	00000000 alt_usleep.c
00000000 l    df *ABS*	00000000 alt_write.c
00012a1c l     F .text	0000003c alt_get_errno
00000000 l    df *ABS*	00000000 alt_sys_init.c
00012b58 l     F .text	00000034 alt_dev_reg
0001908c l     O .rwdata	00000038 i2c_0
000190c4 l     O .rwdata	00000038 i2c_1
000190fc l     O .rwdata	00001060 JTAG_UART
0001a15c l     O .rwdata	0000003c modular_adc_0
0001a198 l     O .rwdata	00000054 video_pixel_buffer_dma_0
00000000 l    df *ABS*	00000000 altera_avalon_i2c.c
00012e34 l     F .text	00000110 optional_irq_callback
00012f94 l     F .text	0000009c alt_avalon_i2c_irq
00000000 l    df *ABS*	00000000 altera_avalon_jtag_uart_fd.c
00000000 l    df *ABS*	00000000 altera_avalon_jtag_uart_init.c
00014c70 l     F .text	0000020c altera_avalon_jtag_uart_irq
00014e7c l     F .text	000000a0 altera_avalon_jtag_uart_timeout
00000000 l    df *ABS*	00000000 altera_avalon_jtag_uart_ioctl.c
00000000 l    df *ABS*	00000000 altera_avalon_jtag_uart_read.c
00000000 l    df *ABS*	00000000 altera_avalon_jtag_uart_write.c
00000000 l    df *ABS*	00000000 altera_avalon_spi.c
00000000 l    df *ABS*	00000000 altera_avalon_timer_sc.c
000156b0 l     F .text	00000078 alt_avalon_timer_sc_irq
00000000 l    df *ABS*	00000000 altera_modular_adc.c
000157a4 l     F .text	000000a8 alt_adc_irq
00000000 l    df *ABS*	00000000 altera_up_avalon_video_pixel_buffer_dma.c
00000000 l    df *ABS*	00000000 alt_alarm_start.c
00000000 l    df *ABS*	00000000 alt_busy_sleep.c
00000000 l    df *ABS*	00000000 alt_dcache_flush_all.c
00000000 l    df *ABS*	00000000 alt_dev_llist_insert.c
00016f2c l     F .text	0000003c alt_get_errno
00000000 l    df *ABS*	00000000 alt_do_ctors.c
00000000 l    df *ABS*	00000000 alt_do_dtors.c
00000000 l    df *ABS*	00000000 alt_find_dev.c
00000000 l    df *ABS*	00000000 alt_icache_flush_all.c
00000000 l    df *ABS*	00000000 alt_iic.c
00000000 l    df *ABS*	00000000 alt_iic_isr_register.c
00000000 l    df *ABS*	00000000 alt_io_redirect.c
0001741c l     F .text	000000e4 alt_open_fd
00000000 l    df *ABS*	00000000 alt_irq_vars.c
00000000 l    df *ABS*	00000000 alt_open.c
0001757c l     F .text	0000003c alt_get_errno
000175b8 l     F .text	000000ec alt_file_locked
00000000 l    df *ABS*	00000000 alt_printf.c
00000000 l    df *ABS*	00000000 alt_putchar.c
00000000 l    df *ABS*	00000000 altera_nios2_gen2_irq.c
00000000 l    df *ABS*	00000000 alt_find_file.c
00000000 l    df *ABS*	00000000 alt_get_fd.c
00000000 l    df *ABS*	00000000 atexit.c
00000000 l    df *ABS*	00000000 exit.c
00000000 l    df *ABS*	00000000 memcmp.c
00000000 l    df *ABS*	00000000 putc.c
00000000 l    df *ABS*	00000000 __atexit.c
00000000 l    df *ABS*	00000000 __call_atexit.c
00000000 l    df *ABS*	00000000 alt_exit.c
0001bf08 g     O .bss	00000004 alt_instruction_exception_handler
0000a34c g     F .text	00000074 _mprec_log10
00015a44 g     F .text	00000050 adc_stop
0000a438 g     F .text	0000008c __any_on
0000dd78 g     F .text	00000054 _isatty_r
0001831c g     O .rodata	00000028 __mprec_tinytens
00012510 g     F .text	0000007c alt_main
00001fc4 g     F .text	00000090 strcpy
0001664c g     F .text	0000026c alt_up_pixel_buffer_dma_draw_vline
0001c074 g     O .bss	00000100 alt_irq
0000ddcc g     F .text	00000060 _lseek_r
0001a250 g       *ABS*	00000000 __flash_rwdata_start
00018630 g     O .rwdata	0000000e colors
000107d4 g     F .text	00000088 .hidden __eqdf2
00008dc4 g     F .text	0000005c _gettimeofday_r
0001c174 g       *ABS*	00000000 __alt_heap_start
00001df4 g     F .text	0000003c printf
00000aac g     F .text	000001bc hex_message
0000e6a4 g     F .text	0000009c _wcrtomb_r
0000a610 g     F .text	0000005c __sseek
000087b8 g     F .text	00000010 __sinit
0000e54c g     F .text	00000140 __swbuf_r
00008e20 g     F .text	0000007c _setlocale_r
00008610 g     F .text	00000078 __sfmoreglue
0001368c g     F .text	000000a8 alt_avalon_i2c_rx_read
000125b0 g     F .text	00000024 __malloc_unlock
00000474 g     F .text	0000013c generate_next_level
000148a4 g     F .text	00000044 alt_avalon_i2c_enabled_ints_get
000008fc g     F .text	00000040 get_end_dist
00013410 g     F .text	00000094 alt_avalon_i2c_master_config_speed_get
0001bea0 g     O .bss	00000004 joystick_y
0000de2c g     F .text	0000015c memmove
000087a0 g     F .text	00000018 _cleanup
000140f4 g     F .text	0000020c alt_avalon_i2c_master_transmit_using_interrupts
0000940c g     F .text	000000a8 _Balloc
00015d4c g     F .text	000001a8 alt_up_pixel_buffer_dma_draw
0001085c g     F .text	000000dc .hidden __gtdf2
00017a68 g     F .text	00000024 altera_nios2_gen2_irq_init
0001a1f4 g     O .rwdata	00000004 hex5_4
00015d10 g     F .text	0000003c alt_up_pixel_buffer_dma_open_dev
00000000 g     F .entry	0000000c __reset
00015c08 g     F .text	00000048 adc_interrupt_disable
00000020 g       *ABS*	00000000 __flash_exceptions_start
0000d854 g     F .text	0000005c _fstat_r
0001bed0 g     O .bss	00000004 errno
0000a58c g     F .text	00000008 __seofread
0000a920 g     F .text	000013a0 ___svfiprintf_internal_r
000158f8 g     F .text	00000074 altera_modular_adc_init
0001bef4 g     O .bss	00000004 alt_argv
000221ec g       *ABS*	00000000 _gp
000129ec g     F .text	00000030 usleep
000148e8 g     F .text	0000004c alt_avalon_i2c_rx_fifo_threshold_get
00015ef4 g     F .text	0000005c alt_up_pixel_buffer_dma_change_back_buffer_address
000135a0 g     F .text	00000044 alt_avalon_i2c_is_busy
00018f0c g     O .rwdata	00000180 alt_fd_list
00013344 g     F .text	000000cc alt_avalon_i2c_master_config_set
000170cc g     F .text	00000090 alt_find_dev
0000919c g     F .text	00000148 memcpy
00008460 g     F .text	0000000c _cleanup_r
00011c14 g     F .text	000000dc .hidden __floatsidf
00015b0c g     F .text	0000003c adc_set_mode_run_continuously
00017500 g     F .text	0000007c alt_io_redirect
00010938 g     F .text	000000f4 .hidden __ltdf2
000181f0 g       *ABS*	00000000 __DTOR_END__
00001128 g     F .text	00000040 isTouching
00013f34 g     F .text	000001c0 alt_avalon_i2c_master_transmit
00017c58 g     F .text	0000009c alt_exception_cause_generated_bad_addr
00000720 g     F .text	00000054 end_of_level
0000a4c4 g     F .text	00000074 __fpclassifyd
0000a2a8 g     F .text	000000a4 __ratio
0000d2e0 g     F .text	0000001c __vfiprintf_internal
00015fb0 g     F .text	00000034 alt_up_pixel_buffer_dma_check_swap_buffers_status
00015074 g     F .text	0000021c altera_avalon_jtag_uart_read
00001590 g     F .text	00000014 malloc
00001dc4 g     F .text	00000030 _printf_r
000014ac g     F .text	00000064 .hidden __udivsi3
00012260 g     F .text	000000ac isatty
00000cf4 g     F .text	00000020 joystick_get_y
0001836c g     O .rodata	000000c8 __mprec_tens
00000844 g     F .text	00000044 reset_game
0000093c g     F .text	00000080 reset_enemy_cords
0001641c g     F .text	00000230 alt_up_pixel_buffer_dma_draw_hline
00008e9c g     F .text	0000000c __locale_charset
0001bee0 g     O .bss	00000008 alt_timezone
000131b0 g     F .text	00000098 alt_avalon_i2c_enable
0001becc g     O .bss	00000004 __malloc_top_pad
000147d8 g     F .text	00000068 alt_avalon_i2c_int_disable
0001a210 g     O .rwdata	00000004 __mb_cur_max
00008ecc g     F .text	0000000c _localeconv_r
0000d8b0 g     F .text	000004c8 __sfvwrite_r
00009840 g     F .text	0000003c __i2b
00000700 g     F .text	00000020 get_level
00001eac g     F .text	00000054 _sbrk_r
00016980 g     F .text	000000c0 helper_plot_pixel
0000df88 g     F .text	00000060 _read_r
0001a244 g     O .rwdata	00000008 altera_modular_adc_list
0001a228 g     O .rwdata	00000004 alt_max_fd
0000d548 g     F .text	000000f0 _fclose_r
00008428 g     F .text	00000030 fflush
0001bec8 g     O .bss	00000004 __malloc_max_sbrked_mem
00014300 g     F .text	00000210 alt_avalon_i2c_master_receive
0000f558 g     F .text	000008ac .hidden __adddf3
0000a050 g     F .text	0000010c __b2d
00015fe4 g     F .text	0000013c alt_up_pixel_buffer_dma_clear_screen
0000ef94 g     F .text	000005c4 .hidden __umoddi3
00012434 g     F .text	000000dc lseek
0001a1f8 g     O .rwdata	00000004 hex3_0
00014840 g     F .text	00000064 alt_avalon_i2c_int_enable
0001a208 g     O .rwdata	00000004 _global_impure_ptr
0000dfe8 g     F .text	00000564 _realloc_r
0001c174 g       *ABS*	00000000 __bss_end
0001732c g     F .text	000000f0 alt_iic_isr_register
00016120 g     F .text	000002fc alt_up_pixel_buffer_dma_draw_box
000128e4 g     F .text	00000108 alt_tick
0000e998 g     F .text	000005fc .hidden __udivdi3
00014700 g     F .text	00000058 alt_avalon_i2c_int_status_get
0000d7b0 g     F .text	00000024 _fputwc_r
00015cd4 g     F .text	0000003c adc_wait_for_interrupt
00018344 g     O .rodata	00000028 __mprec_bigtens
00009624 g     F .text	00000104 __s2b
00011cf0 g     F .text	000000a8 .hidden __floatunsidf
00009d90 g     F .text	00000060 __mcmp
000087d8 g     F .text	00000018 __fp_lock_all
000172e0 g     F .text	0000004c alt_ic_irq_enabled
00012848 g     F .text	0000009c alt_alarm_stop
00013030 g     F .text	00000054 alt_avalon_i2c_register_callback
0001bf04 g     O .bss	00000004 alt_irq_active
00013084 g     F .text	000000ec alt_avalon_i2c_init
000000fc g     F .exceptions	000000d4 alt_irq_handler
00018ee4 g     O .rwdata	00000028 alt_dev_null
00015acc g     F .text	00000040 adc_set_mode_run_once
00016f0c g     F .text	00000020 alt_dcache_flush_all
00009728 g     F .text	00000068 __hi0bits
000168b8 g     F .text	000000c8 alt_up_pixel_buffer_dma_draw_rectangle
00011b94 g     F .text	00000080 .hidden __fixdfsi
000002ac g     F .text	00000090 adc_read
0001a250 g       *ABS*	00000000 __ram_rwdata_end
0001a220 g     O .rwdata	00000008 alt_dev_list
00012a58 g     F .text	00000100 write
00017dbc g     F .text	000000a0 _putc_r
000139c0 g     F .text	0000004c alt_avalon_i2c_check_arblost
0001a1fc g     O .rwdata	00000004 num_colors
00016a40 g     F .text	00000248 alt_up_pixel_buffer_dma_draw_line
0001479c g     F .text	0000003c alt_avalon_i2c_int_clear
0001861c g       *ABS*	00000000 __ram_rodata_end
00011f78 g     F .text	000000b8 fstat
00000000 g       *ABS*	00000000 __alt_mem_SDRAM
00010938 g     F .text	000000f4 .hidden __ledf2
00000d34 g     F .text	00000020 joystick_get_offset_y
0001a23c g     O .rwdata	00000008 alt_avalon_i2c_list
00009b08 g     F .text	00000140 __pow5mult
00015a94 g     F .text	00000038 adc_start
0000bdd4 g     F .text	0000150c ___vfiprintf_internal_r
0001bedc g     O .bss	00000004 __nlocale_changed
00001510 g     F .text	00000058 .hidden __umodsi3
0001c174 g       *ABS*	00000000 end
0000138c g     F .text	00000028 reset_player_cords
0001bec0 g     O .bss	00000004 lt24
00014bb0 g     F .text	000000c0 altera_avalon_jtag_uart_init
000001d0 g     F .exceptions	00000060 alt_instruction_exception_entry
00013170 g     F .text	00000040 alt_avalon_i2c_open
0001bea4 g     O .bss	00000004 joystick_x
000181f0 g       *ABS*	00000000 __CTOR_LIST__
04000000 g       *ABS*	00000000 __alt_stack_pointer
00013b48 g     F .text	000000e8 alt_avalon_i2c_master_tx
00015728 g     F .text	0000007c alt_avalon_timer_sc_init
00011d98 g     F .text	00000064 .hidden __clzsi2
00015290 g     F .text	00000224 altera_avalon_jtag_uart_write
000087c8 g     F .text	00000004 __sfp_lock_acquire
000090b8 g     F .text	000000e4 memchr
000043f8 g     F .text	000022dc ___vfprintf_internal_r
00001f00 g     F .text	00000058 _sprintf_r
0000892c g     F .text	00000310 _free_r
00017800 g     F .text	0000022c alt_printf
00008ea8 g     F .text	00000010 __locale_mb_cur_max
0001803c g     F .text	00000180 __call_exitprocs
0001bed8 g     O .bss	00000004 __mlocale_changed
00012f44 g     F .text	00000050 alt_avalon_i2c_register_optional_irq_handler
0001a200 g     O .rwdata	00000004 __malloc_sbrk_base
00000230 g     F .text	0000003c _start
0001bf34 g     O .bss	00000078 xcord
0001befc g     O .bss	00000004 _alt_tick_rate
00000888 g     F .text	00000074 countdown
00014510 g     F .text	000001f0 alt_avalon_i2c_master_receive_using_interrupts
00001e48 g     F .text	00000064 rand
00014934 g     F .text	00000064 alt_avalon_i2c_rx_fifo_threshold_set
00009c48 g     F .text	00000148 __lshift
000154b4 g     F .text	000001fc alt_avalon_spi_command
0001bf00 g     O .bss	00000004 _alt_nticks
00012610 g     F .text	00000104 read
00012bc4 g     F .text	00000270 alt_sys_init
0000a750 g     F .text	000001d0 __ssprint_r
00017f24 g     F .text	00000118 __register_exitproc
00000e10 g     F .text	000000b8 draw_box_and_follow
00000f9c g     F .text	0000018c follow_touch
00013d6c g     F .text	000001c8 alt_avalon_i2c_master_tx_rx
0000987c g     F .text	0000028c __multiply
00014f1c g     F .text	00000068 altera_avalon_jtag_uart_close
000005b0 g     F .text	00000150 player_touching_enemy
00001568 g     F .text	00000028 .hidden __mulsi3
0001861c g       *ABS*	00000000 __ram_rwdata_start
000181f0 g       *ABS*	00000000 __ram_rodata_start
0001bf0c g     O .bss	00000028 __malloc_current_mallinfo
0000a15c g     F .text	0000014c __d2b
00000c68 g     F .text	0000006c joystick_read
00000ec8 g     F .text	000000d4 follow_joystick
00014a4c g     F .text	00000060 altera_avalon_jtag_uart_read_fd
00017b94 g     F .text	000000c4 alt_get_fd
00016db4 g     F .text	00000158 alt_busy_sleep
0000d418 g     F .text	00000054 _close_r
00000774 g     F .text	000000d0 draw_en
00017d40 g     F .text	0000007c memcmp
000135e4 g     F .text	000000a8 alt_avalon_i2c_rx_read_available
00014b0c g     F .text	00000050 altera_avalon_jtag_uart_close_fd
0001c174 g       *ABS*	00000000 __alt_stack_base
00014b5c g     F .text	00000054 altera_avalon_jtag_uart_ioctl_fd
000012a0 g     F .text	00000074 draw_box
000067ac g     F .text	00000154 __swsetup_r
00015bc4 g     F .text	00000044 adc_interrupt_enable
0000fe04 g     F .text	000009d0 .hidden __divdf3
00008688 g     F .text	00000118 __sfp
0000a3c0 g     F .text	00000078 __copybits
00018640 g     O .rwdata	00000408 __malloc_av_
000087d4 g     F .text	00000004 __sinit_lock_release
00010a2c g     F .text	0000086c .hidden __muldf3
0001be98 g     O .bss	00000004 offset_x
0000a538 g     F .text	00000054 __sread
00017a8c g     F .text	00000108 alt_find_file
00016f68 g     F .text	000000a4 alt_dev_llist_insert
0001258c g     F .text	00000024 __malloc_lock
00012798 g     F .text	000000b0 sbrk
000020ec g     F .text	000022bc ___svfprintf_internal_r
00013a0c g     F .text	0000013c alt_avalon_i2c_interrupt_transaction_status
00013974 g     F .text	0000004c alt_avalon_i2c_check_nack
000083cc g     F .text	0000005c _fflush_r
0000d46c g     F .text	000000dc _calloc_r
00012030 g     F .text	000001f4 gettimeofday
0000136c g     F .text	00000020 get_player_y
0001be84 g       *ABS*	00000000 __bss_start
000092e4 g     F .text	00000128 memset
00000d54 g     F .text	000000bc lcd_init
000009bc g     F .text	000000f0 main
00013940 g     F .text	00000034 alt_avalon_i2c_master_target_set
0001bef8 g     O .bss	00000004 alt_envp
0001bec4 g     O .bss	00000004 __malloc_max_total_mem
00015f50 g     F .text	00000060 alt_up_pixel_buffer_dma_swap_buffers
0001bea8 g     O .bss	00000004 adc_data
00014aac g     F .text	00000060 altera_avalon_jtag_uart_write_fd
0000e68c g     F .text	00000018 __swbuf
00001e30 g     F .text	00000018 srand
00014758 g     F .text	00000044 alt_avalon_i2c_int_raw_status_get
0001584c g     F .text	000000ac alt_adc_word_read
0000a66c g     F .text	00000008 __sclose
04000000 g       *ABS*	00000000 __alt_heap_limit
0000d638 g     F .text	00000014 fclose
00006b28 g     F .text	00001688 _dtoa_r
000015b8 g     F .text	0000080c _malloc_r
0000e800 g     F .text	00000030 __ascii_wctomb
000043a8 g     F .text	00000050 time
0001a22c g     O .rwdata	00000004 alt_errno
00008c3c g     F .text	000000c4 _fwalk
0001beb8 g     O .bss	00000004 screen_drawn
00017e5c g     F .text	000000c8 putc
000013b4 g     F .text	00000084 .hidden __divsi3
00008808 g     F .text	00000124 _malloc_trim_r
000181f0 g       *ABS*	00000000 __CTOR_END__
0001be84 g     O .bss	00000008 readings
0000a674 g     F .text	000000dc strcmp
000181f0 g       *ABS*	00000000 __flash_rodata_start
000181f0 g       *ABS*	00000000 __DTOR_LIST__
000107d4 g     F .text	00000088 .hidden __nedf2
00012b8c g     F .text	00000038 alt_irq_init
00012714 g     F .text	00000084 alt_release_fd
00001f58 g     F .text	0000006c sprintf
00018474 g     O .rodata	00000100 .hidden __clz_tab
0001bed4 g     O .bss	00000004 _PathLocale
00017cf4 g     F .text	00000014 atexit
0000d3b8 g     F .text	00000060 _write_r
00008ed8 g     F .text	00000018 setlocale
0001a20c g     O .rwdata	00000004 _impure_ptr
0001bef0 g     O .bss	00000004 alt_argc
0000026c g     F .text	00000040 adc_init
000081b0 g     F .text	0000021c __sflush_r
0001706c g     F .text	00000060 _do_dtors
00008ec4 g     F .text	00000008 __locale_cjk_lang
00013908 g     F .text	00000038 alt_avalon_i2c_master_target_get
00013818 g     F .text	000000f0 alt_avalon_i2c_send_address
00000020 g       .exceptions	00000000 alt_irq_entry
00009fec g     F .text	00000064 __ulp
000087f0 g     F .text	00000018 __fp_unlock_all
0001a218 g     O .rwdata	00000008 alt_fs_list
0000033c g     F .text	00000138 tetris_init
0001bee8 g     O .bss	00000008 alt_resettime
00000020 g       *ABS*	00000000 __ram_exceptions_start
00008ef0 g     F .text	0000000c localeconv
000149e4 g     F .text	00000068 alt_avalon_i2c_tfr_cmd_fifo_threshold_set
0001717c g     F .text	00000050 alt_ic_isr_register
00013248 g     F .text	0000004c alt_avalon_i2c_disable
0001a250 g       *ABS*	00000000 _edata
0001c174 g       *ABS*	00000000 _end
00015c94 g     F .text	00000040 adc_interrupt_asserted
0000d64c g     F .text	00000164 __fputwc
00000230 g       *ABS*	00000000 __ram_exceptions_end
00014f84 g     F .text	000000f0 altera_avalon_jtag_uart_ioctl
0001be90 g     O .bss	00000006 str
08000000 g       *ABS*	00000000 __alt_mem_Onchip_SRAM
00013294 g     F .text	000000b0 alt_avalon_i2c_master_config_get
00017254 g     F .text	0000008c alt_ic_irq_disable
0000a594 g     F .text	0000007c __swrite
00000cd4 g     F .text	00000020 joystick_get_x
0001a204 g     O .rwdata	00000004 __malloc_trim_threshold
00015c50 g     F .text	00000044 adc_clear_interrupt_status
00008eb8 g     F .text	0000000c __locale_msgcharset
00017d08 g     F .text	00000038 exit
00008d00 g     F .text	000000c4 _fwalk_reent
00009df0 g     F .text	000001fc __mdiff
00001438 g     F .text	00000074 .hidden __modsi3
0001bfac g     O .bss	00000078 ycord
00000d14 g     F .text	00000020 joystick_get_offset_x
0001c024 g     O .bss	00000050 level_info
04000000 g       *ABS*	00000000 __alt_data_end
00000020 g     F .exceptions	00000000 alt_exception
000087cc g     F .text	00000004 __sfp_lock_release
000134a4 g     F .text	000000fc alt_avalon_i2c_master_config_speed_set
00013734 g     F .text	000000e4 alt_avalon_i2c_cmd_write
00015a04 g     F .text	00000040 altera_modular_adc_open
000181bc g     F .text	00000034 _exit
00016c88 g     F .text	0000012c alt_alarm_start
0000e88c g     F .text	0000010c .hidden __muldi3
00008efc g     F .text	000001bc __smakebuf_r
00002054 g     F .text	00000098 strlen
000176a4 g     F .text	0000015c open
0001085c g     F .text	000000dc .hidden __gedf2
00017a2c g     F .text	0000003c alt_putchar
00015b48 g     F .text	0000007c adc_recalibrate
0001a214 g     O .rwdata	00000004 __wctomb
0000bdbc g     F .text	00000018 __sprint_r
0001715c g     F .text	00000020 alt_icache_flush_all
0001a24c g     O .rwdata	00000004 alt_priority_mask
000171cc g     F .text	00000088 alt_ic_irq_enable
000066d4 g     F .text	0000001c __vfprintf_internal
0000e830 g     F .text	0000005c _wctomb_r
00001168 g     F .text	00000138 draw_touch
00001314 g     F .text	00000038 clear_screen
00011298 g     F .text	000008fc .hidden __subdf3
0000134c g     F .text	00000020 get_player_x
00009790 g     F .text	000000b0 __lo0bits
0001a234 g     O .rwdata	00000008 alt_alarm_list
0001700c g     F .text	00000060 _do_ctors
0000e740 g     F .text	000000c0 wcrtomb
00011e38 g     F .text	000000d8 close
0001be9c g     O .bss	00000004 offset_y
00014998 g     F .text	0000004c alt_avalon_i2c_tfr_cmd_fifo_threshold_get
00012374 g     F .text	00000084 alt_load
00013c30 g     F .text	0000013c alt_avalon_i2c_master_rx
0000d7d4 g     F .text	00000080 fputwc
0001596c g     F .text	00000098 alt_adc_register_callback
000015a4 g     F .text	00000014 free
000087d0 g     F .text	00000004 __sinit_lock_acquire
000094dc g     F .text	00000148 __multadd
000094b4 g     F .text	00000028 _Bfree



Disassembly of section .entry:

00000000 <__reset>:
 * Jump to the _start entry point in the .text section if reset code
 * is allowed or if optimizing for RTL simulation.
 */
#if defined(ALT_ALLOW_CODE_AT_RESET) || defined(ALT_SIM_OPTIMIZE)
    /* Jump to the _start entry point in the .text section. */
    movhi r1, %hi(_start)
   0:	00400034 	movhi	at,0
    ori r1, r1, %lo(_start)
   4:	08408c14 	ori	at,at,560
    jmp r1
   8:	0800683a 	jmp	at
	...

Disassembly of section .exceptions:

00000020 <alt_exception>:

#else /* ALT_EXCEPTION_STACK disabled */
        /* 
         * Reserve space on normal stack for registers about to be pushed.
         */
        addi  sp, sp, -76
  20:	deffed04 	addi	sp,sp,-76
         * documentation for details).
         *
         * Leave a gap in the stack frame at 4(sp) for the muldiv handler to
         * store zero into.
         */
        stw   ra,  0(sp)
  24:	dfc00015 	stw	ra,0(sp)
        stw   r1,   8(sp)
  28:	d8400215 	stw	at,8(sp)
        stw   r2,  12(sp)
  2c:	d8800315 	stw	r2,12(sp)
        stw   r3,  16(sp)
  30:	d8c00415 	stw	r3,16(sp)
        stw   r4,  20(sp)
  34:	d9000515 	stw	r4,20(sp)
        stw   r5,  24(sp)
  38:	d9400615 	stw	r5,24(sp)
        stw   r6,  28(sp)
  3c:	d9800715 	stw	r6,28(sp)
        stw   r7,  32(sp)
  40:	d9c00815 	stw	r7,32(sp)
        rdctl r5, estatus   /* Read early to avoid usage stall */
  44:	000b307a 	rdctl	r5,estatus
        stw   r8,  36(sp)
  48:	da000915 	stw	r8,36(sp)
        stw   r9,  40(sp)
  4c:	da400a15 	stw	r9,40(sp)
        stw   r10, 44(sp)
  50:	da800b15 	stw	r10,44(sp)
        stw   r11, 48(sp)
  54:	dac00c15 	stw	r11,48(sp)
        stw   r12, 52(sp)
  58:	db000d15 	stw	r12,52(sp)
        stw   r13, 56(sp)
  5c:	db400e15 	stw	r13,56(sp)
        stw   r14, 60(sp)
  60:	db800f15 	stw	r14,60(sp)
        stw   r15, 64(sp)
  64:	dbc01015 	stw	r15,64(sp)
        /*
         * ea-4 contains the address of the instruction being executed
         * when the exception occured. For interrupt exceptions, we will
         * will be re-issue the isntruction. Store it in 72(sp)
         */
        stw   r5,  68(sp)  /* estatus */
  68:	d9401115 	stw	r5,68(sp)
        addi  r15, ea, -4  /* instruction that caused exception */
  6c:	ebffff04 	addi	r15,ea,-4
        stw   r15,  72(sp)
  70:	dbc01215 	stw	r15,72(sp)
#else
        /*
         * Test to see if the exception was a software exception or caused 
         * by an external interrupt, and vector accordingly.
         */
        rdctl r4, ipending
  74:	0009313a 	rdctl	r4,ipending
        andi  r2, r5, 1
  78:	2880004c 	andi	r2,r5,1
        beq   r2, zero, .Lnot_irq
  7c:	10000326 	beq	r2,zero,8c <alt_exception+0x6c>
        beq   r4, zero, .Lnot_irq
  80:	20000226 	beq	r4,zero,8c <alt_exception+0x6c>
        /*
         * Now that all necessary registers have been preserved, call 
         * alt_irq_handler() to process the interrupts.
         */

        call alt_irq_handler
  84:	00000fc0 	call	fc <alt_irq_handler>

        .section .exceptions.irqreturn, "xa"

        br    .Lexception_exit
  88:	00000706 	br	a8 <alt_exception+0x88>
         * upon completion, so we write ea (address of instruction *after*
         * the one where the exception occured) into 72(sp). The actual
         * instruction that caused the exception is written in r2, which these
         * handlers will utilize.
         */
        stw ea, 72(sp) /* EA is PC+4 so will skip over instruction causing exception */
  8c:	df401215 	stw	ea,72(sp)
.Lunknown_16bit:
        addi.n r4, r4, 2 /* Need PC+2 to skip over instruction causing exception */
        stw r4, 72(sp)

#else /* CDX is not Enabled and all instructions are 32bits */
        ldw r2, -4(ea) /* Instruction value that caused exception */
  90:	e8bfff17 	ldw	r2,-4(ea)
         * debugger is present) or go into an infinite loop since the
         * handling behavior is undefined; in that case we will not return here.
         */

        /* Load exception-causing address as first argument (r4) */
        addi   r4, ea, -4
  94:	e93fff04 	addi	r4,ea,-4

        /* Call the instruction-exception entry */
        call   alt_instruction_exception_entry
  98:	00001d00 	call	1d0 <alt_instruction_exception_entry>
         * instruction
         *
         * Return code was 0: Skip. The instruction after the exception is
         * already stored in 72(sp).
         */
        bne   r2, r0, .Lexception_exit
  9c:	1000021e 	bne	r2,zero,a8 <alt_exception+0x88>

        /*
         * Otherwise, modify 72(sp) to re-issue the instruction that caused the
         * exception.
         */
        addi  r15, ea, -4  /* instruction that caused exception */
  a0:	ebffff04 	addi	r15,ea,-4
        stw   r15,  72(sp)
  a4:	dbc01215 	stw	r15,72(sp)
        /* 
         * Restore the saved registers, so that all general purpose registers 
         * have been restored to their state at the time the interrupt occured.
         */

        ldw   r5,  68(sp)
  a8:	d9401117 	ldw	r5,68(sp)
        ldw   ea,  72(sp)  /* This becomes the PC once eret is executed */
  ac:	df401217 	ldw	ea,72(sp)
        ldw   ra,   0(sp)
  b0:	dfc00017 	ldw	ra,0(sp)

        wrctl estatus, r5
  b4:	2801707a 	wrctl	estatus,r5

        ldw   r1,   8(sp)
  b8:	d8400217 	ldw	at,8(sp)
        ldw   r2,  12(sp)
  bc:	d8800317 	ldw	r2,12(sp)
        ldw   r3,  16(sp)
  c0:	d8c00417 	ldw	r3,16(sp)
        ldw   r4,  20(sp)
  c4:	d9000517 	ldw	r4,20(sp)
        ldw   r5,  24(sp)
  c8:	d9400617 	ldw	r5,24(sp)
        ldw   r6,  28(sp)
  cc:	d9800717 	ldw	r6,28(sp)
        ldw   r7,  32(sp)
  d0:	d9c00817 	ldw	r7,32(sp)

#if defined(ALT_EXCEPTION_STACK) && defined(ALT_STACK_CHECK)
        ldw   et, %gprel(alt_exception_old_stack_limit)(gp)
#endif

        ldw   r8,  36(sp)
  d4:	da000917 	ldw	r8,36(sp)
        ldw   r9,  40(sp)
  d8:	da400a17 	ldw	r9,40(sp)
        ldw   r10, 44(sp)
  dc:	da800b17 	ldw	r10,44(sp)
        ldw   r11, 48(sp)
  e0:	dac00c17 	ldw	r11,48(sp)
        ldw   r12, 52(sp)
  e4:	db000d17 	ldw	r12,52(sp)
        ldw   r13, 56(sp)
  e8:	db400e17 	ldw	r13,56(sp)
        ldw   r14, 60(sp)
  ec:	db800f17 	ldw	r14,60(sp)
        ldw   r15, 64(sp)
  f0:	dbc01017 	ldw	r15,64(sp)
        stw   et, %gprel(alt_stack_limit_value)(gp)
        stw   zero, %gprel(alt_exception_old_stack_limit)(gp)
#endif /* ALT_STACK_CHECK */
        ldw   sp,  76(sp)
#else /* ALT_EXCEPTION_STACK disabled */
        addi  sp, sp, 76
  f4:	dec01304 	addi	sp,sp,76

        /*
         * Return to the interrupted instruction.
         */

        eret
  f8:	ef80083a 	eret

000000fc <alt_irq_handler>:
 * instruction is present if the macro ALT_CI_INTERRUPT_VECTOR defined.
 */

void alt_irq_handler (void) __attribute__ ((section (".exceptions")));
void alt_irq_handler (void)
{
  fc:	defff904 	addi	sp,sp,-28
 100:	dfc00615 	stw	ra,24(sp)
 104:	df000515 	stw	fp,20(sp)
 108:	df000504 	addi	fp,sp,20
  
  /*
   * Notify the operating system that we are at interrupt level.
   */ 
  
  ALT_OS_INT_ENTER();
 10c:	0001883a 	nop
#ifndef NIOS2_EIC_PRESENT
static ALT_INLINE alt_u32 ALT_ALWAYS_INLINE alt_irq_pending (void)
{
  alt_u32 active;

  NIOS2_READ_IPENDING (active);
 110:	0005313a 	rdctl	r2,ipending
 114:	e0bffe15 	stw	r2,-8(fp)

  return active;
 118:	e0bffe17 	ldw	r2,-8(fp)
   * Consider the case where the high priority interupt is asserted during
   * the interrupt entry sequence for a lower priority interrupt to see why
   * this is the case.
   */

  active = alt_irq_pending ();
 11c:	e0bffb15 	stw	r2,-20(fp)

  do
  {
    i = 0;
 120:	e03ffd15 	stw	zero,-12(fp)
    mask = 1;
 124:	00800044 	movi	r2,1
 128:	e0bffc15 	stw	r2,-16(fp)
     * called to clear the interrupt condition.
     */

    do
    {
      if (active & mask)
 12c:	e0fffb17 	ldw	r3,-20(fp)
 130:	e0bffc17 	ldw	r2,-16(fp)
 134:	1884703a 	and	r2,r3,r2
 138:	10001426 	beq	r2,zero,18c <alt_irq_handler+0x90>
      { 
#ifdef ALT_ENHANCED_INTERRUPT_API_PRESENT
        alt_irq[i].handler(alt_irq[i].context); 
 13c:	008000b4 	movhi	r2,2
 140:	10b01d04 	addi	r2,r2,-16268
 144:	e0fffd17 	ldw	r3,-12(fp)
 148:	180690fa 	slli	r3,r3,3
 14c:	10c5883a 	add	r2,r2,r3
 150:	10c00017 	ldw	r3,0(r2)
 154:	008000b4 	movhi	r2,2
 158:	10b01d04 	addi	r2,r2,-16268
 15c:	e13ffd17 	ldw	r4,-12(fp)
 160:	200890fa 	slli	r4,r4,3
 164:	1105883a 	add	r2,r2,r4
 168:	10800104 	addi	r2,r2,4
 16c:	10800017 	ldw	r2,0(r2)
 170:	1009883a 	mov	r4,r2
 174:	183ee83a 	callr	r3
#else
        alt_irq[i].handler(alt_irq[i].context, i); 
#endif
        break;
 178:	0001883a 	nop
#ifndef NIOS2_EIC_PRESENT
static ALT_INLINE alt_u32 ALT_ALWAYS_INLINE alt_irq_pending (void)
{
  alt_u32 active;

  NIOS2_READ_IPENDING (active);
 17c:	0005313a 	rdctl	r2,ipending
 180:	e0bfff15 	stw	r2,-4(fp)

  return active;
 184:	e0bfff17 	ldw	r2,-4(fp)
 188:	00000706 	br	1a8 <alt_irq_handler+0xac>
      }
      mask <<= 1;
 18c:	e0bffc17 	ldw	r2,-16(fp)
 190:	1085883a 	add	r2,r2,r2
 194:	e0bffc15 	stw	r2,-16(fp)
      i++;
 198:	e0bffd17 	ldw	r2,-12(fp)
 19c:	10800044 	addi	r2,r2,1
 1a0:	e0bffd15 	stw	r2,-12(fp)

    } while (1);
 1a4:	003fe106 	br	12c <__alt_mem_Onchip_SRAM+0xf800012c>

    active = alt_irq_pending ();
 1a8:	e0bffb15 	stw	r2,-20(fp)
    
  } while (active);
 1ac:	e0bffb17 	ldw	r2,-20(fp)
 1b0:	103fdb1e 	bne	r2,zero,120 <__alt_mem_Onchip_SRAM+0xf8000120>

  /*
   * Notify the operating system that interrupt processing is complete.
   */ 

  ALT_OS_INT_EXIT();
 1b4:	0001883a 	nop
}
 1b8:	0001883a 	nop
 1bc:	e037883a 	mov	sp,fp
 1c0:	dfc00117 	ldw	ra,4(sp)
 1c4:	df000017 	ldw	fp,0(sp)
 1c8:	dec00204 	addi	sp,sp,8
 1cc:	f800283a 	ret

000001d0 <alt_instruction_exception_entry>:
 * that handler if it has been registered. Absent a handler, it will
 * break break or hang as discussed below.
 */
int 
alt_instruction_exception_entry (alt_u32 exception_pc)
{
 1d0:	defffb04 	addi	sp,sp,-20
 1d4:	dfc00415 	stw	ra,16(sp)
 1d8:	df000315 	stw	fp,12(sp)
 1dc:	df000304 	addi	fp,sp,12
 1e0:	e13fff15 	stw	r4,-4(fp)
  cause = ( (cause & NIOS2_EXCEPTION_REG_CAUSE_MASK) >>
              NIOS2_EXCEPTION_REG_CAUSE_OFST );

  NIOS2_READ_BADADDR(badaddr);
#else
  cause = NIOS2_EXCEPTION_CAUSE_NOT_PRESENT;
 1e4:	00bfffc4 	movi	r2,-1
 1e8:	e0bffd15 	stw	r2,-12(fp)
  badaddr = 0;
 1ec:	e03ffe15 	stw	zero,-8(fp)
#endif /* NIOS2_HAS_EXTRA_EXCEPTION_INFO */

  if(alt_instruction_exception_handler) {
 1f0:	d0a74717 	ldw	r2,-25316(gp)
 1f4:	10000726 	beq	r2,zero,214 <alt_instruction_exception_entry+0x44>
     * Call handler. Its return value indicates whether the exception-causing
     * instruction should be re-issued. The code that called us,
     * alt_eceptions_entry.S, will look at this value and adjust the ea
     * register as necessary
     */
    return alt_instruction_exception_handler(cause, exception_pc, badaddr);
 1f8:	d0a74717 	ldw	r2,-25316(gp)
 1fc:	e0fffd17 	ldw	r3,-12(fp)
 200:	e1bffe17 	ldw	r6,-8(fp)
 204:	e17fff17 	ldw	r5,-4(fp)
 208:	1809883a 	mov	r4,r3
 20c:	103ee83a 	callr	r2
 210:	00000206 	br	21c <alt_instruction_exception_entry+0x4c>
   *    (a peripheral which negates its interrupt output before its
   *    interrupt handler has been executed will cause spurious interrupts)
   */
  else {
#ifdef NIOS2_HAS_DEBUG_STUB
    NIOS2_BREAK();
 214:	003da03a 	break	0
      ;
#endif /* NIOS2_HAS_DEBUG_STUB */
  }

  /* We should not get here. Remove compiler warning. */
  return NIOS2_EXCEPTION_RETURN_REISSUE_INST;
 218:	0005883a 	mov	r2,zero
}
 21c:	e037883a 	mov	sp,fp
 220:	dfc00117 	ldw	ra,4(sp)
 224:	df000017 	ldw	fp,0(sp)
 228:	dec00204 	addi	sp,sp,8
 22c:	f800283a 	ret

Disassembly of section .text:

00000230 <_start>:

    /*
     * Now that the caches are initialized, set up the stack pointer and global pointer.
     * The values provided by the linker are assumed to be correctly aligned.
     */
    movhi sp, %hi(__alt_stack_pointer)
     230:	06c10034 	movhi	sp,1024
    ori sp, sp, %lo(__alt_stack_pointer)
     234:	dec00014 	ori	sp,sp,0
    movhi gp, %hi(_gp)
     238:	068000b4 	movhi	gp,2
    ori gp, gp, %lo(_gp)
     23c:	d6887b14 	ori	gp,gp,8684
 */
#ifndef ALT_SIM_OPTIMIZE
    /* Log that the BSS is about to be cleared. */
    ALT_LOG_PUTS(alt_log_msg_bss)

    movhi r2, %hi(__bss_start)
     240:	00800074 	movhi	r2,1
    ori r2, r2, %lo(__bss_start)
     244:	10afa114 	ori	r2,r2,48772

    movhi r3, %hi(__bss_end)
     248:	00c00074 	movhi	r3,1
    ori r3, r3, %lo(__bss_end)
     24c:	18f05d14 	ori	r3,r3,49524

    beq r2, r3, 1f
     250:	10c00326 	beq	r2,r3,260 <_start+0x30>

0:
    stw zero, (r2)
     254:	10000015 	stw	zero,0(r2)
    addi r2, r2, 4
     258:	10800104 	addi	r2,r2,4
    bltu r2, r3, 0b
     25c:	10fffd36 	bltu	r2,r3,254 <__alt_mem_Onchip_SRAM+0xf8000254>
     * section aren't defined until alt_load() has been called).
     */
    mov   et, zero
#endif

    call alt_load
     260:	00123740 	call	12374 <alt_load>

    /* Log that alt_main is about to be called. */
    ALT_LOG_PUTS(alt_log_msg_alt_main)

    /* Call the C entry point. It should never return. */
    call alt_main
     264:	00125100 	call	12510 <alt_main>

00000268 <alt_after_alt_main>:

    /* Wait in infinite loop in case alt_main does return. */
alt_after_alt_main:
    br alt_after_alt_main
     268:	003fff06 	br	268 <__alt_mem_Onchip_SRAM+0xf8000268>

0000026c <adc_init>:
#include "adc.h"

//Sequencer data
int readings[2];

void adc_init(void){
     26c:	defffe04 	addi	sp,sp,-8
     270:	dfc00115 	stw	ra,4(sp)
     274:	df000015 	stw	fp,0(sp)
     278:	d839883a 	mov	fp,sp
	adc_set_mode_run_continuously(MODULAR_ADC_0_SEQUENCER_CSR_BASE);
     27c:	013fc834 	movhi	r4,65312
     280:	21104004 	addi	r4,r4,16640
     284:	0015b0c0 	call	15b0c <adc_set_mode_run_continuously>
	adc_start(MODULAR_ADC_0_SEQUENCER_CSR_BASE);
     288:	013fc834 	movhi	r4,65312
     28c:	21104004 	addi	r4,r4,16640
     290:	0015a940 	call	15a94 <adc_start>
}
     294:	0001883a 	nop
     298:	e037883a 	mov	sp,fp
     29c:	dfc00117 	ldw	ra,4(sp)
     2a0:	df000017 	ldw	fp,0(sp)
     2a4:	dec00204 	addi	sp,sp,8
     2a8:	f800283a 	ret

000002ac <adc_read>:

////Returns the last 2 conversions
int* adc_read(void){
     2ac:	defffd04 	addi	sp,sp,-12
     2b0:	dfc00215 	stw	ra,8(sp)
     2b4:	df000115 	stw	fp,4(sp)
     2b8:	df000104 	addi	fp,sp,4
	alt_adc_word_read(MODULAR_ADC_0_SAMPLE_STORE_CSR_BASE,readings,2);
     2bc:	01800084 	movi	r6,2
     2c0:	d1672604 	addi	r5,gp,-25448
     2c4:	013fc834 	movhi	r4,65312
     2c8:	21108004 	addi	r4,r4,16896
     2cc:	001584c0 	call	1584c <alt_adc_word_read>

	//Make 8-bit data
	for(int i = 0; i <= 1; i++){
     2d0:	e03fff15 	stw	zero,-4(fp)
     2d4:	00001006 	br	318 <adc_read+0x6c>
		readings[i] = readings[i] >> 4;
     2d8:	e0bfff17 	ldw	r2,-4(fp)
     2dc:	1085883a 	add	r2,r2,r2
     2e0:	1087883a 	add	r3,r2,r2
     2e4:	d0a72604 	addi	r2,gp,-25448
     2e8:	1885883a 	add	r2,r3,r2
     2ec:	10800017 	ldw	r2,0(r2)
     2f0:	1007d13a 	srai	r3,r2,4
     2f4:	e0bfff17 	ldw	r2,-4(fp)
     2f8:	1085883a 	add	r2,r2,r2
     2fc:	1089883a 	add	r4,r2,r2
     300:	d0a72604 	addi	r2,gp,-25448
     304:	2085883a 	add	r2,r4,r2
     308:	10c00015 	stw	r3,0(r2)
////Returns the last 2 conversions
int* adc_read(void){
	alt_adc_word_read(MODULAR_ADC_0_SAMPLE_STORE_CSR_BASE,readings,2);

	//Make 8-bit data
	for(int i = 0; i <= 1; i++){
     30c:	e0bfff17 	ldw	r2,-4(fp)
     310:	10800044 	addi	r2,r2,1
     314:	e0bfff15 	stw	r2,-4(fp)
     318:	e0bfff17 	ldw	r2,-4(fp)
     31c:	10800090 	cmplti	r2,r2,2
     320:	103fed1e 	bne	r2,zero,2d8 <__alt_mem_Onchip_SRAM+0xf80002d8>
		readings[i] = readings[i] >> 4;
	}
	return readings;
     324:	d0a72604 	addi	r2,gp,-25448
}
     328:	e037883a 	mov	sp,fp
     32c:	dfc00117 	ldw	ra,4(sp)
     330:	df000017 	ldw	fp,0(sp)
     334:	dec00204 	addi	sp,sp,8
     338:	f800283a 	ret

0000033c <tetris_init>:
};

/**
 * Populates the struct with values and sets constants
 */
int tetris_init(void){
     33c:	defffd04 	addi	sp,sp,-12
     340:	dfc00215 	stw	ra,8(sp)
     344:	df000115 	stw	fp,4(sp)
     348:	df000104 	addi	fp,sp,4
	level_count = 0;
     34c:	d0272815 	stw	zero,-25440(gp)
	srand(time(NULL));   // Initialization for rand. num
     350:	0009883a 	mov	r4,zero
     354:	00043a80 	call	43a8 <time>
     358:	1009883a 	mov	r4,r2
     35c:	0001e300 	call	1e30 <srand>

	for (int i = 0; i < NUM_LEVELS; i++) {
     360:	e03fff15 	stw	zero,-4(fp)
     364:	00003906 	br	44c <tetris_init+0x110>

		strcpy(level_info.level_hex[i], level_names[i]);
     368:	01400184 	movi	r5,6
     36c:	e13fff17 	ldw	r4,-4(fp)
     370:	00015680 	call	1568 <__mulsi3>
     374:	1007883a 	mov	r3,r2
     378:	008000b4 	movhi	r2,2
     37c:	10b00904 	addi	r2,r2,-16348
     380:	1889883a 	add	r4,r3,r2
     384:	008000b4 	movhi	r2,2
     388:	10a18704 	addi	r2,r2,-31204
     38c:	e0ffff17 	ldw	r3,-4(fp)
     390:	18c7883a 	add	r3,r3,r3
     394:	18c7883a 	add	r3,r3,r3
     398:	10c5883a 	add	r2,r2,r3
     39c:	10800017 	ldw	r2,0(r2)
     3a0:	100b883a 	mov	r5,r2
     3a4:	0001fc40 	call	1fc4 <strcpy>

		// Add enemy color. Cycles through array
		level_info.enemy_color[i] = enemy_colors[i];
     3a8:	008000b4 	movhi	r2,2
     3ac:	10a07c04 	addi	r2,r2,-32272
     3b0:	e0ffff17 	ldw	r3,-4(fp)
     3b4:	18c7883a 	add	r3,r3,r3
     3b8:	10c5883a 	add	r2,r2,r3
     3bc:	1100000b 	ldhu	r4,0(r2)
     3c0:	008000b4 	movhi	r2,2
     3c4:	10b00904 	addi	r2,r2,-16348
     3c8:	e0ffff17 	ldw	r3,-4(fp)
     3cc:	18c00384 	addi	r3,r3,14
     3d0:	18c7883a 	add	r3,r3,r3
     3d4:	10c5883a 	add	r2,r2,r3
     3d8:	10800084 	addi	r2,r2,2
     3dc:	1100000d 	sth	r4,0(r2)

		// Add number of enemies. Increase by 5
		level_info.num_enemies[i] = num_enemies+=5;
     3e0:	d0a00017 	ldw	r2,-32768(gp)
     3e4:	10800144 	addi	r2,r2,5
     3e8:	d0a00015 	stw	r2,-32768(gp)
     3ec:	d1200017 	ldw	r4,-32768(gp)
     3f0:	008000b4 	movhi	r2,2
     3f4:	10b00904 	addi	r2,r2,-16348
     3f8:	e0ffff17 	ldw	r3,-4(fp)
     3fc:	18c00284 	addi	r3,r3,10
     400:	18c7883a 	add	r3,r3,r3
     404:	18c7883a 	add	r3,r3,r3
     408:	10c5883a 	add	r2,r2,r3
     40c:	11000015 	stw	r4,0(r2)

		// Add ending location. Decrease by 10 (lower to bottom)
		level_info.end_location[i] = end_position += 20;
     410:	d0a00117 	ldw	r2,-32764(gp)
     414:	10800504 	addi	r2,r2,20
     418:	d0a00115 	stw	r2,-32764(gp)
     41c:	d1200117 	ldw	r4,-32764(gp)
     420:	008000b4 	movhi	r2,2
     424:	10b00904 	addi	r2,r2,-16348
     428:	e0ffff17 	ldw	r3,-4(fp)
     42c:	18c003c4 	addi	r3,r3,15
     430:	18c7883a 	add	r3,r3,r3
     434:	18c7883a 	add	r3,r3,r3
     438:	10c5883a 	add	r2,r2,r3
     43c:	11000015 	stw	r4,0(r2)
 */
int tetris_init(void){
	level_count = 0;
	srand(time(NULL));   // Initialization for rand. num

	for (int i = 0; i < NUM_LEVELS; i++) {
     440:	e0bfff17 	ldw	r2,-4(fp)
     444:	10800044 	addi	r2,r2,1
     448:	e0bfff15 	stw	r2,-4(fp)
     44c:	e0bfff17 	ldw	r2,-4(fp)
     450:	10800150 	cmplti	r2,r2,5
     454:	103fc41e 	bne	r2,zero,368 <__alt_mem_Onchip_SRAM+0xf8000368>
		// Add ending location. Decrease by 10 (lower to bottom)
		level_info.end_location[i] = end_position += 20;
	}

	//Fill enemy X and Y coordinates with sentinel values
	reset_enemy_cords();
     458:	000093c0 	call	93c <reset_enemy_cords>

	return 0;
     45c:	0005883a 	mov	r2,zero
}
     460:	e037883a 	mov	sp,fp
     464:	dfc00117 	ldw	ra,4(sp)
     468:	df000017 	ldw	fp,0(sp)
     46c:	dec00204 	addi	sp,sp,8
     470:	f800283a 	ret

00000474 <generate_next_level>:

/**
 * Generates a new level. 5 is the max, and each time, the horizontal line gets closer to the top
 * and the "enemy" blocks are faster
 */
int generate_next_level(void){
     474:	defffb04 	addi	sp,sp,-20
     478:	dfc00415 	stw	ra,16(sp)
     47c:	df000315 	stw	fp,12(sp)
     480:	df000304 	addi	fp,sp,12
	clear_screen();
     484:	00013140 	call	1314 <clear_screen>
	//Increase Level counter.
	level_count++;
     488:	d0a72817 	ldw	r2,-25440(gp)
     48c:	10800044 	addi	r2,r2,1
     490:	d0a72815 	stw	r2,-25440(gp)

	//Display level on Hex displays, decrement level_count to index at 0
	hex_message(level_info.level_hex[level_count-1]);
     494:	d0a72817 	ldw	r2,-25440(gp)
     498:	10bfffc4 	addi	r2,r2,-1
     49c:	01400184 	movi	r5,6
     4a0:	1009883a 	mov	r4,r2
     4a4:	00015680 	call	1568 <__mulsi3>
     4a8:	1007883a 	mov	r3,r2
     4ac:	008000b4 	movhi	r2,2
     4b0:	10b00904 	addi	r2,r2,-16348
     4b4:	1885883a 	add	r2,r3,r2
     4b8:	1009883a 	mov	r4,r2
     4bc:	0000aac0 	call	aac <hex_message>

	//Draw enemies at random x and y locations. Are stationary
	for(int i = 0; i < level_info.num_enemies[level_count-1]; i++){
     4c0:	e03ffd15 	stw	zero,-12(fp)
     4c4:	00002906 	br	56c <generate_next_level+0xf8>
		//Only draw if not a sentinel value

		//Enemies are 10 x 10 boxes with random positive coordinates on screen
		int x = rand()%(width-10)+1;
     4c8:	0001e480 	call	1e48 <rand>
     4cc:	01404d84 	movi	r5,310
     4d0:	1009883a 	mov	r4,r2
     4d4:	00014380 	call	1438 <__modsi3>
     4d8:	10800044 	addi	r2,r2,1
     4dc:	e0bffe15 	stw	r2,-8(fp)
		int y = rand()%(level_info.end_location[level_count-1]-10)+1;
     4e0:	0001e480 	call	1e48 <rand>
     4e4:	1009883a 	mov	r4,r2
     4e8:	d0a72817 	ldw	r2,-25440(gp)
     4ec:	10ffffc4 	addi	r3,r2,-1
     4f0:	008000b4 	movhi	r2,2
     4f4:	10b00904 	addi	r2,r2,-16348
     4f8:	18c003c4 	addi	r3,r3,15
     4fc:	18c7883a 	add	r3,r3,r3
     500:	18c7883a 	add	r3,r3,r3
     504:	10c5883a 	add	r2,r2,r3
     508:	10800017 	ldw	r2,0(r2)
     50c:	10bffd84 	addi	r2,r2,-10
     510:	100b883a 	mov	r5,r2
     514:	00014380 	call	1438 <__modsi3>
     518:	10800044 	addi	r2,r2,1
     51c:	e0bfff15 	stw	r2,-4(fp)

		//Update Arrays
		xcord[i] = x;
     520:	008000b4 	movhi	r2,2
     524:	10afcd04 	addi	r2,r2,-16588
     528:	e0fffd17 	ldw	r3,-12(fp)
     52c:	18c7883a 	add	r3,r3,r3
     530:	18c7883a 	add	r3,r3,r3
     534:	10c5883a 	add	r2,r2,r3
     538:	e0fffe17 	ldw	r3,-8(fp)
     53c:	10c00015 	stw	r3,0(r2)
		ycord[i] = y;
     540:	008000b4 	movhi	r2,2
     544:	10afeb04 	addi	r2,r2,-16468
     548:	e0fffd17 	ldw	r3,-12(fp)
     54c:	18c7883a 	add	r3,r3,r3
     550:	18c7883a 	add	r3,r3,r3
     554:	10c5883a 	add	r2,r2,r3
     558:	e0ffff17 	ldw	r3,-4(fp)
     55c:	10c00015 	stw	r3,0(r2)

	//Display level on Hex displays, decrement level_count to index at 0
	hex_message(level_info.level_hex[level_count-1]);

	//Draw enemies at random x and y locations. Are stationary
	for(int i = 0; i < level_info.num_enemies[level_count-1]; i++){
     560:	e0bffd17 	ldw	r2,-12(fp)
     564:	10800044 	addi	r2,r2,1
     568:	e0bffd15 	stw	r2,-12(fp)
     56c:	d0a72817 	ldw	r2,-25440(gp)
     570:	10ffffc4 	addi	r3,r2,-1
     574:	008000b4 	movhi	r2,2
     578:	10b00904 	addi	r2,r2,-16348
     57c:	18c00284 	addi	r3,r3,10
     580:	18c7883a 	add	r3,r3,r3
     584:	18c7883a 	add	r3,r3,r3
     588:	10c5883a 	add	r2,r2,r3
     58c:	10800017 	ldw	r2,0(r2)
     590:	e0fffd17 	ldw	r3,-12(fp)
     594:	18bfcc16 	blt	r3,r2,4c8 <__alt_mem_Onchip_SRAM+0xf80004c8>
		//Update Arrays
		xcord[i] = x;
		ycord[i] = y;

	}
	return 0;
     598:	0005883a 	mov	r2,zero
}
     59c:	e037883a 	mov	sp,fp
     5a0:	dfc00117 	ldw	ra,4(sp)
     5a4:	df000017 	ldw	fp,0(sp)
     5a8:	dec00204 	addi	sp,sp,8
     5ac:	f800283a 	ret

000005b0 <player_touching_enemy>:

/**
 * Returns -1 if touching enemy
 */
int player_touching_enemy(int x, int y){
     5b0:	defff804 	addi	sp,sp,-32
     5b4:	df000715 	stw	fp,28(sp)
     5b8:	df000704 	addi	fp,sp,28
     5bc:	e13ffe15 	stw	r4,-8(fp)
     5c0:	e17fff15 	stw	r5,-4(fp)
	int player_box_right = x + 10; // Rightmost x-coordinate of player's box
     5c4:	e0bffe17 	ldw	r2,-8(fp)
     5c8:	10800284 	addi	r2,r2,10
     5cc:	e0bffa15 	stw	r2,-24(fp)
	int player_box_bottom = y + 10; // Bottommost y-coordinate of player's box
     5d0:	e0bfff17 	ldw	r2,-4(fp)
     5d4:	10800284 	addi	r2,r2,10
     5d8:	e0bffb15 	stw	r2,-20(fp)

	for(int i = 0; i < MAX_ENEMIES; i++){
     5dc:	e03ff915 	stw	zero,-28(fp)
     5e0:	00003f06 	br	6e0 <player_touching_enemy+0x130>
		// Determine if the current value is not a sentinel value
		if(xcord[i] < 0 || ycord[i] < 0){
     5e4:	008000b4 	movhi	r2,2
     5e8:	10afcd04 	addi	r2,r2,-16588
     5ec:	e0fff917 	ldw	r3,-28(fp)
     5f0:	18c7883a 	add	r3,r3,r3
     5f4:	18c7883a 	add	r3,r3,r3
     5f8:	10c5883a 	add	r2,r2,r3
     5fc:	10800017 	ldw	r2,0(r2)
     600:	10003a16 	blt	r2,zero,6ec <player_touching_enemy+0x13c>
     604:	008000b4 	movhi	r2,2
     608:	10afeb04 	addi	r2,r2,-16468
     60c:	e0fff917 	ldw	r3,-28(fp)
     610:	18c7883a 	add	r3,r3,r3
     614:	18c7883a 	add	r3,r3,r3
     618:	10c5883a 	add	r2,r2,r3
     61c:	10800017 	ldw	r2,0(r2)
     620:	10003216 	blt	r2,zero,6ec <player_touching_enemy+0x13c>
			break;                // Stop
		}

		// Check if player's box touches the current enemy block
		int enemy_box_right = xcord[i] + 10; // Rightmost x-coordinate of enemy's box
     624:	008000b4 	movhi	r2,2
     628:	10afcd04 	addi	r2,r2,-16588
     62c:	e0fff917 	ldw	r3,-28(fp)
     630:	18c7883a 	add	r3,r3,r3
     634:	18c7883a 	add	r3,r3,r3
     638:	10c5883a 	add	r2,r2,r3
     63c:	10800017 	ldw	r2,0(r2)
     640:	10800284 	addi	r2,r2,10
     644:	e0bffc15 	stw	r2,-16(fp)
		int enemy_box_bottom = ycord[i] + 10; // Bottommost y-coordinate of enemy's box
     648:	008000b4 	movhi	r2,2
     64c:	10afeb04 	addi	r2,r2,-16468
     650:	e0fff917 	ldw	r3,-28(fp)
     654:	18c7883a 	add	r3,r3,r3
     658:	18c7883a 	add	r3,r3,r3
     65c:	10c5883a 	add	r2,r2,r3
     660:	10800017 	ldw	r2,0(r2)
     664:	10800284 	addi	r2,r2,10
     668:	e0bffd15 	stw	r2,-12(fp)

		// Check for overlap or touching
		if (player_box_right >= xcord[i] && x <= enemy_box_right &&
     66c:	008000b4 	movhi	r2,2
     670:	10afcd04 	addi	r2,r2,-16588
     674:	e0fff917 	ldw	r3,-28(fp)
     678:	18c7883a 	add	r3,r3,r3
     67c:	18c7883a 	add	r3,r3,r3
     680:	10c5883a 	add	r2,r2,r3
     684:	10800017 	ldw	r2,0(r2)
     688:	e0fffa17 	ldw	r3,-24(fp)
     68c:	18801116 	blt	r3,r2,6d4 <player_touching_enemy+0x124>
     690:	e0bffe17 	ldw	r2,-8(fp)
     694:	e0fffc17 	ldw	r3,-16(fp)
     698:	18800e16 	blt	r3,r2,6d4 <player_touching_enemy+0x124>
				player_box_bottom >= ycord[i] && y <= enemy_box_bottom) {
     69c:	008000b4 	movhi	r2,2
     6a0:	10afeb04 	addi	r2,r2,-16468
     6a4:	e0fff917 	ldw	r3,-28(fp)
     6a8:	18c7883a 	add	r3,r3,r3
     6ac:	18c7883a 	add	r3,r3,r3
     6b0:	10c5883a 	add	r2,r2,r3
     6b4:	10800017 	ldw	r2,0(r2)
		// Check if player's box touches the current enemy block
		int enemy_box_right = xcord[i] + 10; // Rightmost x-coordinate of enemy's box
		int enemy_box_bottom = ycord[i] + 10; // Bottommost y-coordinate of enemy's box

		// Check for overlap or touching
		if (player_box_right >= xcord[i] && x <= enemy_box_right &&
     6b8:	e0fffb17 	ldw	r3,-20(fp)
     6bc:	18800516 	blt	r3,r2,6d4 <player_touching_enemy+0x124>
				player_box_bottom >= ycord[i] && y <= enemy_box_bottom) {
     6c0:	e0bfff17 	ldw	r2,-4(fp)
     6c4:	e0fffd17 	ldw	r3,-12(fp)
     6c8:	18800216 	blt	r3,r2,6d4 <player_touching_enemy+0x124>
			return -1; // Player's box touches an enemy block
     6cc:	00bfffc4 	movi	r2,-1
     6d0:	00000706 	br	6f0 <player_touching_enemy+0x140>
 */
int player_touching_enemy(int x, int y){
	int player_box_right = x + 10; // Rightmost x-coordinate of player's box
	int player_box_bottom = y + 10; // Bottommost y-coordinate of player's box

	for(int i = 0; i < MAX_ENEMIES; i++){
     6d4:	e0bff917 	ldw	r2,-28(fp)
     6d8:	10800044 	addi	r2,r2,1
     6dc:	e0bff915 	stw	r2,-28(fp)
     6e0:	e0bff917 	ldw	r2,-28(fp)
     6e4:	10800790 	cmplti	r2,r2,30
     6e8:	103fbe1e 	bne	r2,zero,5e4 <__alt_mem_Onchip_SRAM+0xf80005e4>
				player_box_bottom >= ycord[i] && y <= enemy_box_bottom) {
			return -1; // Player's box touches an enemy block
		}
	}

	return 0; // Player's box does not touch any enemy block
     6ec:	0005883a 	mov	r2,zero
}
     6f0:	e037883a 	mov	sp,fp
     6f4:	df000017 	ldw	fp,0(sp)
     6f8:	dec00104 	addi	sp,sp,4
     6fc:	f800283a 	ret

00000700 <get_level>:

/**
 * Returns level count, starts at 1 and ends at 6
 */
int get_level(void){
     700:	deffff04 	addi	sp,sp,-4
     704:	df000015 	stw	fp,0(sp)
     708:	d839883a 	mov	fp,sp
	return level_count;
     70c:	d0a72817 	ldw	r2,-25440(gp)
}
     710:	e037883a 	mov	sp,fp
     714:	df000017 	ldw	fp,0(sp)
     718:	dec00104 	addi	sp,sp,4
     71c:	f800283a 	ret

00000720 <end_of_level>:

/**
 * Returns true if the box is on the h.line
 *
 */
int end_of_level(int x, int y){
     720:	defffd04 	addi	sp,sp,-12
     724:	df000215 	stw	fp,8(sp)
     728:	df000204 	addi	fp,sp,8
     72c:	e13ffe15 	stw	r4,-8(fp)
     730:	e17fff15 	stw	r5,-4(fp)
	return (y >= level_info.end_location[level_count-1]);
     734:	d0a72817 	ldw	r2,-25440(gp)
     738:	10ffffc4 	addi	r3,r2,-1
     73c:	008000b4 	movhi	r2,2
     740:	10b00904 	addi	r2,r2,-16348
     744:	18c003c4 	addi	r3,r3,15
     748:	18c7883a 	add	r3,r3,r3
     74c:	18c7883a 	add	r3,r3,r3
     750:	10c5883a 	add	r2,r2,r3
     754:	10800017 	ldw	r2,0(r2)
     758:	e0ffff17 	ldw	r3,-4(fp)
     75c:	1884403a 	cmpge	r2,r3,r2
     760:	10803fcc 	andi	r2,r2,255
}
     764:	e037883a 	mov	sp,fp
     768:	df000017 	ldw	fp,0(sp)
     76c:	dec00104 	addi	sp,sp,4
     770:	f800283a 	ret

00000774 <draw_en>:

/**
 * Draws the enemies. 10-30
 */
void draw_en(void){
     774:	defffd04 	addi	sp,sp,-12
     778:	dfc00215 	stw	ra,8(sp)
     77c:	df000115 	stw	fp,4(sp)
     780:	df000104 	addi	fp,sp,4
	for(int i = 0; i < level_info.num_enemies[level_count -1]; i++){
     784:	e03fff15 	stw	zero,-4(fp)
     788:	00001d06 	br	800 <draw_en+0x8c>
		draw_box(xcord[i],ycord[i], level_info.enemy_color[level_count -1]);
     78c:	008000b4 	movhi	r2,2
     790:	10afcd04 	addi	r2,r2,-16588
     794:	e0ffff17 	ldw	r3,-4(fp)
     798:	18c7883a 	add	r3,r3,r3
     79c:	18c7883a 	add	r3,r3,r3
     7a0:	10c5883a 	add	r2,r2,r3
     7a4:	11000017 	ldw	r4,0(r2)
     7a8:	008000b4 	movhi	r2,2
     7ac:	10afeb04 	addi	r2,r2,-16468
     7b0:	e0ffff17 	ldw	r3,-4(fp)
     7b4:	18c7883a 	add	r3,r3,r3
     7b8:	18c7883a 	add	r3,r3,r3
     7bc:	10c5883a 	add	r2,r2,r3
     7c0:	11400017 	ldw	r5,0(r2)
     7c4:	d0a72817 	ldw	r2,-25440(gp)
     7c8:	10ffffc4 	addi	r3,r2,-1
     7cc:	008000b4 	movhi	r2,2
     7d0:	10b00904 	addi	r2,r2,-16348
     7d4:	18c00384 	addi	r3,r3,14
     7d8:	18c7883a 	add	r3,r3,r3
     7dc:	10c5883a 	add	r2,r2,r3
     7e0:	10800084 	addi	r2,r2,2
     7e4:	1080000b 	ldhu	r2,0(r2)
     7e8:	10bfffcc 	andi	r2,r2,65535
     7ec:	100d883a 	mov	r6,r2
     7f0:	00012a00 	call	12a0 <draw_box>

/**
 * Draws the enemies. 10-30
 */
void draw_en(void){
	for(int i = 0; i < level_info.num_enemies[level_count -1]; i++){
     7f4:	e0bfff17 	ldw	r2,-4(fp)
     7f8:	10800044 	addi	r2,r2,1
     7fc:	e0bfff15 	stw	r2,-4(fp)
     800:	d0a72817 	ldw	r2,-25440(gp)
     804:	10ffffc4 	addi	r3,r2,-1
     808:	008000b4 	movhi	r2,2
     80c:	10b00904 	addi	r2,r2,-16348
     810:	18c00284 	addi	r3,r3,10
     814:	18c7883a 	add	r3,r3,r3
     818:	18c7883a 	add	r3,r3,r3
     81c:	10c5883a 	add	r2,r2,r3
     820:	10800017 	ldw	r2,0(r2)
     824:	e0ffff17 	ldw	r3,-4(fp)
     828:	18bfd816 	blt	r3,r2,78c <__alt_mem_Onchip_SRAM+0xf800078c>
		draw_box(xcord[i],ycord[i], level_info.enemy_color[level_count -1]);
	}
}
     82c:	0001883a 	nop
     830:	e037883a 	mov	sp,fp
     834:	dfc00117 	ldw	ra,4(sp)
     838:	df000017 	ldw	fp,0(sp)
     83c:	dec00204 	addi	sp,sp,8
     840:	f800283a 	ret

00000844 <reset_game>:

/**
 * Resets the state of the game to beginning
 */
void reset_game(void){
     844:	defffe04 	addi	sp,sp,-8
     848:	dfc00115 	stw	ra,4(sp)
     84c:	df000015 	stw	fp,0(sp)
     850:	d839883a 	mov	fp,sp
	level_count = 0;
     854:	d0272815 	stw	zero,-25440(gp)
	num_enemies = 5;
     858:	00800144 	movi	r2,5
     85c:	d0a00015 	stw	r2,-32768(gp)
	end_position = 100;
     860:	00801904 	movi	r2,100
     864:	d0a00115 	stw	r2,-32764(gp)
	reset_player_cords();
     868:	000138c0 	call	138c <reset_player_cords>
	reset_enemy_cords();
     86c:	000093c0 	call	93c <reset_enemy_cords>

}
     870:	0001883a 	nop
     874:	e037883a 	mov	sp,fp
     878:	dfc00117 	ldw	ra,4(sp)
     87c:	df000017 	ldw	fp,0(sp)
     880:	dec00204 	addi	sp,sp,8
     884:	f800283a 	ret

00000888 <countdown>:

/**
 * Counts from 1 to num seconds
 */
void countdown(int num){
     888:	defffc04 	addi	sp,sp,-16
     88c:	dfc00315 	stw	ra,12(sp)
     890:	df000215 	stw	fp,8(sp)
     894:	df000204 	addi	fp,sp,8
     898:	e13fff15 	stw	r4,-4(fp)
	for(int i = num; i >= 1; i-- ){
     89c:	e0bfff17 	ldw	r2,-4(fp)
     8a0:	e0bffe15 	stw	r2,-8(fp)
     8a4:	00000d06 	br	8dc <countdown+0x54>
		//Convert number to a string
		sprintf(str, "%d",i);
     8a8:	e1bffe17 	ldw	r6,-8(fp)
     8ac:	014000b4 	movhi	r5,2
     8b0:	29608904 	addi	r5,r5,-32220
     8b4:	d1272904 	addi	r4,gp,-25436
     8b8:	0001f580 	call	1f58 <sprintf>
		hex_message(str);
     8bc:	d1272904 	addi	r4,gp,-25436
     8c0:	0000aac0 	call	aac <hex_message>
		//Wait for 1/2 a second
		usleep(250000);
     8c4:	01000134 	movhi	r4,4
     8c8:	21342404 	addi	r4,r4,-12144
     8cc:	00129ec0 	call	129ec <usleep>

/**
 * Counts from 1 to num seconds
 */
void countdown(int num){
	for(int i = num; i >= 1; i-- ){
     8d0:	e0bffe17 	ldw	r2,-8(fp)
     8d4:	10bfffc4 	addi	r2,r2,-1
     8d8:	e0bffe15 	stw	r2,-8(fp)
     8dc:	e0bffe17 	ldw	r2,-8(fp)
     8e0:	00bff116 	blt	zero,r2,8a8 <__alt_mem_Onchip_SRAM+0xf80008a8>
		sprintf(str, "%d",i);
		hex_message(str);
		//Wait for 1/2 a second
		usleep(250000);
	}
}
     8e4:	0001883a 	nop
     8e8:	e037883a 	mov	sp,fp
     8ec:	dfc00117 	ldw	ra,4(sp)
     8f0:	df000017 	ldw	fp,0(sp)
     8f4:	dec00204 	addi	sp,sp,8
     8f8:	f800283a 	ret

000008fc <get_end_dist>:

int get_end_dist(void){
     8fc:	deffff04 	addi	sp,sp,-4
     900:	df000015 	stw	fp,0(sp)
     904:	d839883a 	mov	fp,sp
	return level_info.end_location[level_count-1];
     908:	d0a72817 	ldw	r2,-25440(gp)
     90c:	10ffffc4 	addi	r3,r2,-1
     910:	008000b4 	movhi	r2,2
     914:	10b00904 	addi	r2,r2,-16348
     918:	18c003c4 	addi	r3,r3,15
     91c:	18c7883a 	add	r3,r3,r3
     920:	18c7883a 	add	r3,r3,r3
     924:	10c5883a 	add	r2,r2,r3
     928:	10800017 	ldw	r2,0(r2)
}
     92c:	e037883a 	mov	sp,fp
     930:	df000017 	ldw	fp,0(sp)
     934:	dec00104 	addi	sp,sp,4
     938:	f800283a 	ret

0000093c <reset_enemy_cords>:

/**
 * Resets the xcord and ycord arrays with -1 as sentinel values
 */
void reset_enemy_cords(void){
     93c:	defffe04 	addi	sp,sp,-8
     940:	df000115 	stw	fp,4(sp)
     944:	df000104 	addi	fp,sp,4
	//Reset enemy coordinates
	for(int i = 0; i < MAX_ENEMIES; i++){
     948:	e03fff15 	stw	zero,-4(fp)
     94c:	00001306 	br	99c <reset_enemy_cords+0x60>
		xcord[i] = -1;
     950:	008000b4 	movhi	r2,2
     954:	10afcd04 	addi	r2,r2,-16588
     958:	e0ffff17 	ldw	r3,-4(fp)
     95c:	18c7883a 	add	r3,r3,r3
     960:	18c7883a 	add	r3,r3,r3
     964:	10c5883a 	add	r2,r2,r3
     968:	00ffffc4 	movi	r3,-1
     96c:	10c00015 	stw	r3,0(r2)
		ycord[i] = -1;
     970:	008000b4 	movhi	r2,2
     974:	10afeb04 	addi	r2,r2,-16468
     978:	e0ffff17 	ldw	r3,-4(fp)
     97c:	18c7883a 	add	r3,r3,r3
     980:	18c7883a 	add	r3,r3,r3
     984:	10c5883a 	add	r2,r2,r3
     988:	00ffffc4 	movi	r3,-1
     98c:	10c00015 	stw	r3,0(r2)
/**
 * Resets the xcord and ycord arrays with -1 as sentinel values
 */
void reset_enemy_cords(void){
	//Reset enemy coordinates
	for(int i = 0; i < MAX_ENEMIES; i++){
     990:	e0bfff17 	ldw	r2,-4(fp)
     994:	10800044 	addi	r2,r2,1
     998:	e0bfff15 	stw	r2,-4(fp)
     99c:	e0bfff17 	ldw	r2,-4(fp)
     9a0:	10800790 	cmplti	r2,r2,30
     9a4:	103fea1e 	bne	r2,zero,950 <__alt_mem_Onchip_SRAM+0xf8000950>
		xcord[i] = -1;
		ycord[i] = -1;
	}
}
     9a8:	0001883a 	nop
     9ac:	e037883a 	mov	sp,fp
     9b0:	df000017 	ldw	fp,0(sp)
     9b4:	dec00104 	addi	sp,sp,4
     9b8:	f800283a 	ret

000009bc <main>:
#include "joystick.h"
#include "game.h"
#include "hex_display.h"

int main()
{
     9bc:	defffb04 	addi	sp,sp,-20
     9c0:	dfc00415 	stw	ra,16(sp)
     9c4:	df000315 	stw	fp,12(sp)
     9c8:	dc000215 	stw	r16,8(sp)
     9cc:	df000304 	addi	fp,sp,12
	//Inits
	adc_init();
     9d0:	000026c0 	call	26c <adc_init>
	lcd_init();
     9d4:	0000d540 	call	d54 <lcd_init>
	tetris_init();
     9d8:	000033c0 	call	33c <tetris_init>

	while(1){
		int playing = 0;
     9dc:	e03ffd15 	stw	zero,-12(fp)
		int win = -1;
     9e0:	00bfffc4 	movi	r2,-1
     9e4:	e0bffe15 	stw	r2,-8(fp)

		//Generate first level
		generate_next_level();
     9e8:	00004740 	call	474 <generate_next_level>

		while(!playing){
     9ec:	00001d06 	br	a64 <main+0xa8>
			//Follow user
			draw_box_and_follow();
     9f0:	0000e100 	call	e10 <draw_box_and_follow>

			//Determine if current position hits an enemy or is at last level
			if(player_touching_enemy(get_player_x(), get_player_y()) == -1){
     9f4:	000134c0 	call	134c <get_player_x>
     9f8:	1021883a 	mov	r16,r2
     9fc:	000136c0 	call	136c <get_player_y>
     a00:	100b883a 	mov	r5,r2
     a04:	8009883a 	mov	r4,r16
     a08:	00005b00 	call	5b0 <player_touching_enemy>
     a0c:	10bfffd8 	cmpnei	r2,r2,-1
     a10:	1000021e 	bne	r2,zero,a1c <main+0x60>
				playing=-1;
     a14:	00bfffc4 	movi	r2,-1
     a18:	e0bffd15 	stw	r2,-12(fp)
			}

			if(end_of_level(get_player_x(), get_player_y())){
     a1c:	000134c0 	call	134c <get_player_x>
     a20:	1021883a 	mov	r16,r2
     a24:	000136c0 	call	136c <get_player_y>
     a28:	100b883a 	mov	r5,r2
     a2c:	8009883a 	mov	r4,r16
     a30:	00007200 	call	720 <end_of_level>
     a34:	10000b26 	beq	r2,zero,a64 <main+0xa8>
				if(get_level() >= 5){
     a38:	00007000 	call	700 <get_level>
     a3c:	10800150 	cmplti	r2,r2,5
     a40:	1000041e 	bne	r2,zero,a54 <main+0x98>
					win = 0;
     a44:	e03ffe15 	stw	zero,-8(fp)
					playing=-1;
     a48:	00bfffc4 	movi	r2,-1
     a4c:	e0bffd15 	stw	r2,-12(fp)
					break;
     a50:	00000606 	br	a6c <main+0xb0>
				}
				reset_player_cords();
     a54:	000138c0 	call	138c <reset_player_cords>

				//add 3 second delay between levels
				countdown(3);
     a58:	010000c4 	movi	r4,3
     a5c:	00008880 	call	888 <countdown>

				//Next level
				generate_next_level();
     a60:	00004740 	call	474 <generate_next_level>
		int win = -1;

		//Generate first level
		generate_next_level();

		while(!playing){
     a64:	e0bffd17 	ldw	r2,-12(fp)
     a68:	103fe126 	beq	r2,zero,9f0 <__alt_mem_Onchip_SRAM+0xf80009f0>
				generate_next_level();
			}
		}

		//Display status
		if(!win){
     a6c:	e0bffe17 	ldw	r2,-8(fp)
     a70:	1000041e 	bne	r2,zero,a84 <main+0xc8>
			hex_message("winner");
     a74:	010000b4 	movhi	r4,2
     a78:	21208a04 	addi	r4,r4,-32216
     a7c:	0000aac0 	call	aac <hex_message>
     a80:	00000306 	br	a90 <main+0xd4>
		} else {
			hex_message("loser");
     a84:	010000b4 	movhi	r4,2
     a88:	21208c04 	addi	r4,r4,-32208
     a8c:	0000aac0 	call	aac <hex_message>
		}

		//Add small delay before starting again
		usleep(1000000);
     a90:	010003f4 	movhi	r4,15
     a94:	21109004 	addi	r4,r4,16960
     a98:	00129ec0 	call	129ec <usleep>

		//Reset game status
		reset_game();
     a9c:	00008440 	call	844 <reset_game>

		//Wait 5 seconds
		countdown(5);
     aa0:	01000144 	movi	r4,5
     aa4:	00008880 	call	888 <countdown>


	}
     aa8:	003fcc06 	br	9dc <__alt_mem_Onchip_SRAM+0xf80009dc>

00000aac <hex_message>:
 * hex address pointer.
 * Arguments: None
 * Returns: None
 */

void hex_message(const char* string){
     aac:	defff504 	addi	sp,sp,-44
     ab0:	dfc00a15 	stw	ra,40(sp)
     ab4:	df000915 	stw	fp,36(sp)
     ab8:	dc800815 	stw	r18,32(sp)
     abc:	dc400715 	stw	r17,28(sp)
     ac0:	dc000615 	stw	r16,24(sp)
     ac4:	df000904 	addi	fp,sp,36
     ac8:	e13ffc15 	stw	r4,-16(fp)
	//Max shifts for either side of the HEX display
	const int hex5_4_shift_max = 8;
     acc:	00800204 	movi	r2,8
     ad0:	e0bff915 	stw	r2,-28(fp)
	const int hex3_0_shift_max = 24;
     ad4:	00800604 	movi	r2,24
     ad8:	e0bffa15 	stw	r2,-24(fp)
	const int word = 8;
     adc:	00800204 	movi	r2,8
     ae0:	e0bffb15 	stw	r2,-20(fp)

	//Temporary variable to help iterate through the second set of HEXs
	int temp = 0;
     ae4:	e03ff715 	stw	zero,-36(fp)

	//Clear all digits
	*hex5_4 = 0;
     ae8:	00bfc834 	movhi	r2,65312
     aec:	10800c04 	addi	r2,r2,48
     af0:	10000015 	stw	zero,0(r2)
	*hex3_0 = 0;
     af4:	00bfc834 	movhi	r2,65312
     af8:	10800804 	addi	r2,r2,32
     afc:	10000015 	stw	zero,0(r2)

	//If string is greater than 6 characters, print ERR
	if(strlen(string)> 6){
     b00:	e13ffc17 	ldw	r4,-16(fp)
     b04:	00020540 	call	2054 <strlen>
     b08:	108001f0 	cmpltui	r2,r2,7
     b0c:	1000121e 	bne	r2,zero,b58 <hex_message+0xac>
		*hex3_0 |= ('e' << (word*2)) | ('r' << word) | ('r');
     b10:	00bfc834 	movhi	r2,65312
     b14:	10800804 	addi	r2,r2,32
     b18:	00ffc834 	movhi	r3,65312
     b1c:	18c00804 	addi	r3,r3,32
     b20:	19000017 	ldw	r4,0(r3)
     b24:	e0fffb17 	ldw	r3,-20(fp)
     b28:	18c7883a 	add	r3,r3,r3
     b2c:	180b883a 	mov	r5,r3
     b30:	00c01944 	movi	r3,101
     b34:	194a983a 	sll	r5,r3,r5
     b38:	01801c84 	movi	r6,114
     b3c:	e0fffb17 	ldw	r3,-20(fp)
     b40:	30c6983a 	sll	r3,r6,r3
     b44:	28c6b03a 	or	r3,r5,r3
     b48:	20c6b03a 	or	r3,r4,r3
     b4c:	18c01c94 	ori	r3,r3,114
     b50:	10c00015 	stw	r3,0(r2)
				*hex3_0 |= string[i] << (hex3_0_shift_max-(temp*word));
				temp++;
			}
		}
	}
}
     b54:	00003b06 	br	c44 <hex_message+0x198>
	if(strlen(string)> 6){
		*hex3_0 |= ('e' << (word*2)) | ('r' << word) | ('r');
	}else{
		//Not less than iterate through each of the characters
		//and print them on the HEX's left to right
		for(int i = 0; i < strlen(string); i++){
     b58:	e03ff815 	stw	zero,-32(fp)
     b5c:	00003406 	br	c30 <hex_message+0x184>
			if(i < 2){
     b60:	e0bff817 	ldw	r2,-32(fp)
     b64:	10800088 	cmpgei	r2,r2,2
     b68:	1000161e 	bne	r2,zero,bc4 <hex_message+0x118>
				*hex5_4 |= string[i] << (hex5_4_shift_max - (hex5_4_shift_max*i));
     b6c:	043fc834 	movhi	r16,65312
     b70:	84000c04 	addi	r16,r16,48
     b74:	00bfc834 	movhi	r2,65312
     b78:	10800c04 	addi	r2,r2,48
     b7c:	14400017 	ldw	r17,0(r2)
     b80:	e0bff817 	ldw	r2,-32(fp)
     b84:	e0fffc17 	ldw	r3,-16(fp)
     b88:	1885883a 	add	r2,r3,r2
     b8c:	10800003 	ldbu	r2,0(r2)
     b90:	14803fcc 	andi	r18,r2,255
     b94:	9480201c 	xori	r18,r18,128
     b98:	94bfe004 	addi	r18,r18,-128
     b9c:	00c00044 	movi	r3,1
     ba0:	e0bff817 	ldw	r2,-32(fp)
     ba4:	1885c83a 	sub	r2,r3,r2
     ba8:	e17ff917 	ldw	r5,-28(fp)
     bac:	1009883a 	mov	r4,r2
     bb0:	00015680 	call	1568 <__mulsi3>
     bb4:	9084983a 	sll	r2,r18,r2
     bb8:	8884b03a 	or	r2,r17,r2
     bbc:	80800015 	stw	r2,0(r16)
     bc0:	00001806 	br	c24 <hex_message+0x178>
			} else {
				*hex3_0 |= string[i] << (hex3_0_shift_max-(temp*word));
     bc4:	043fc834 	movhi	r16,65312
     bc8:	84000804 	addi	r16,r16,32
     bcc:	00bfc834 	movhi	r2,65312
     bd0:	10800804 	addi	r2,r2,32
     bd4:	14400017 	ldw	r17,0(r2)
     bd8:	e0bff817 	ldw	r2,-32(fp)
     bdc:	e0fffc17 	ldw	r3,-16(fp)
     be0:	1885883a 	add	r2,r3,r2
     be4:	10800003 	ldbu	r2,0(r2)
     be8:	14803fcc 	andi	r18,r2,255
     bec:	9480201c 	xori	r18,r18,128
     bf0:	94bfe004 	addi	r18,r18,-128
     bf4:	e17ffb17 	ldw	r5,-20(fp)
     bf8:	e13ff717 	ldw	r4,-36(fp)
     bfc:	00015680 	call	1568 <__mulsi3>
     c00:	1007883a 	mov	r3,r2
     c04:	e0bffa17 	ldw	r2,-24(fp)
     c08:	10c5c83a 	sub	r2,r2,r3
     c0c:	9084983a 	sll	r2,r18,r2
     c10:	8884b03a 	or	r2,r17,r2
     c14:	80800015 	stw	r2,0(r16)
				temp++;
     c18:	e0bff717 	ldw	r2,-36(fp)
     c1c:	10800044 	addi	r2,r2,1
     c20:	e0bff715 	stw	r2,-36(fp)
	if(strlen(string)> 6){
		*hex3_0 |= ('e' << (word*2)) | ('r' << word) | ('r');
	}else{
		//Not less than iterate through each of the characters
		//and print them on the HEX's left to right
		for(int i = 0; i < strlen(string); i++){
     c24:	e0bff817 	ldw	r2,-32(fp)
     c28:	10800044 	addi	r2,r2,1
     c2c:	e0bff815 	stw	r2,-32(fp)
     c30:	e13ffc17 	ldw	r4,-16(fp)
     c34:	00020540 	call	2054 <strlen>
     c38:	1007883a 	mov	r3,r2
     c3c:	e0bff817 	ldw	r2,-32(fp)
     c40:	10ffc736 	bltu	r2,r3,b60 <__alt_mem_Onchip_SRAM+0xf8000b60>
				*hex3_0 |= string[i] << (hex3_0_shift_max-(temp*word));
				temp++;
			}
		}
	}
}
     c44:	0001883a 	nop
     c48:	e6fffd04 	addi	sp,fp,-12
     c4c:	dfc00417 	ldw	ra,16(sp)
     c50:	df000317 	ldw	fp,12(sp)
     c54:	dc800217 	ldw	r18,8(sp)
     c58:	dc400117 	ldw	r17,4(sp)
     c5c:	dc000017 	ldw	r16,0(sp)
     c60:	dec00504 	addi	sp,sp,20
     c64:	f800283a 	ret

00000c68 <joystick_read>:
int offset_x = 0;
int offset_y = 0;


//Sets the joy stick x and y position from ADC channels
void joystick_read(void){
     c68:	defffe04 	addi	sp,sp,-8
     c6c:	dfc00115 	stw	ra,4(sp)
     c70:	df000015 	stw	fp,0(sp)
     c74:	d839883a 	mov	fp,sp
	adc_data = adc_read();
     c78:	00002ac0 	call	2ac <adc_read>
     c7c:	d0a72f15 	stw	r2,-25412(gp)

	//Calculate the offset (position from center)
	offset_x = adc_data[0] - center_x;
     c80:	d0a72f17 	ldw	r2,-25412(gp)
     c84:	10800017 	ldw	r2,0(r2)
     c88:	10bfe244 	addi	r2,r2,-119
     c8c:	d0a72b15 	stw	r2,-25428(gp)
	offset_y = adc_data[1] - center_y;
     c90:	d0a72f17 	ldw	r2,-25412(gp)
     c94:	10800104 	addi	r2,r2,4
     c98:	10800017 	ldw	r2,0(r2)
     c9c:	10bfe204 	addi	r2,r2,-120
     ca0:	d0a72c15 	stw	r2,-25424(gp)

	//Calibrate the joystick
	joystick_x = adc_data[0];
     ca4:	d0a72f17 	ldw	r2,-25412(gp)
     ca8:	10800017 	ldw	r2,0(r2)
     cac:	d0a72e15 	stw	r2,-25416(gp)
	joystick_y = adc_data[1];
     cb0:	d0a72f17 	ldw	r2,-25412(gp)
     cb4:	10800117 	ldw	r2,4(r2)
     cb8:	d0a72d15 	stw	r2,-25420(gp)
}
     cbc:	0001883a 	nop
     cc0:	e037883a 	mov	sp,fp
     cc4:	dfc00117 	ldw	ra,4(sp)
     cc8:	df000017 	ldw	fp,0(sp)
     ccc:	dec00204 	addi	sp,sp,8
     cd0:	f800283a 	ret

00000cd4 <joystick_get_x>:

//Returns the ADC readings from channel one
int joystick_get_x(void){
     cd4:	deffff04 	addi	sp,sp,-4
     cd8:	df000015 	stw	fp,0(sp)
     cdc:	d839883a 	mov	fp,sp
	return joystick_x;
     ce0:	d0a72e17 	ldw	r2,-25416(gp)
}
     ce4:	e037883a 	mov	sp,fp
     ce8:	df000017 	ldw	fp,0(sp)
     cec:	dec00104 	addi	sp,sp,4
     cf0:	f800283a 	ret

00000cf4 <joystick_get_y>:

//Returns the ADC readings from channel 2
int joystick_get_y(void){
     cf4:	deffff04 	addi	sp,sp,-4
     cf8:	df000015 	stw	fp,0(sp)
     cfc:	d839883a 	mov	fp,sp
	return joystick_y;
     d00:	d0a72d17 	ldw	r2,-25420(gp)
}
     d04:	e037883a 	mov	sp,fp
     d08:	df000017 	ldw	fp,0(sp)
     d0c:	dec00104 	addi	sp,sp,4
     d10:	f800283a 	ret

00000d14 <joystick_get_offset_x>:

int joystick_get_offset_x(void){
     d14:	deffff04 	addi	sp,sp,-4
     d18:	df000015 	stw	fp,0(sp)
     d1c:	d839883a 	mov	fp,sp
	return offset_x;
     d20:	d0a72b17 	ldw	r2,-25428(gp)
}
     d24:	e037883a 	mov	sp,fp
     d28:	df000017 	ldw	fp,0(sp)
     d2c:	dec00104 	addi	sp,sp,4
     d30:	f800283a 	ret

00000d34 <joystick_get_offset_y>:

int joystick_get_offset_y(void){
     d34:	deffff04 	addi	sp,sp,-4
     d38:	df000015 	stw	fp,0(sp)
     d3c:	d839883a 	mov	fp,sp
	return offset_y;
     d40:	d0a72c17 	ldw	r2,-25424(gp)
}
     d44:	e037883a 	mov	sp,fp
     d48:	df000017 	ldw	fp,0(sp)
     d4c:	dec00104 	addi	sp,sp,4
     d50:	f800283a 	ret

00000d54 <lcd_init>:
		0x07FF,  // Cyan
		0xFFFF   // White
};
int num_colors = sizeof(colors)/sizeof(colors[0]);

void lcd_init(void) {
     d54:	defffd04 	addi	sp,sp,-12
     d58:	dfc00215 	stw	ra,8(sp)
     d5c:	df000115 	stw	fp,4(sp)
     d60:	dc000015 	stw	r16,0(sp)
     d64:	df000104 	addi	fp,sp,4
	adc_init();
     d68:	000026c0 	call	26c <adc_init>
	usleep(100);
     d6c:	01001904 	movi	r4,100
     d70:	00129ec0 	call	129ec <usleep>
	// open the device, note the "Linux" driver format
	lt24 = alt_up_pixel_buffer_dma_open_dev("/dev/video_pixel_buffer_dma_0");
     d74:	010000b4 	movhi	r4,2
     d78:	21208e04 	addi	r4,r4,-32200
     d7c:	0015d100 	call	15d10 <alt_up_pixel_buffer_dma_open_dev>
     d80:	d0a73515 	stw	r2,-25388(gp)

	alt_up_pixel_buffer_dma_change_back_buffer_address(lt24,(unsigned int)malloc(320*240*2));
     d84:	d4273517 	ldw	r16,-25388(gp)
     d88:	010000b4 	movhi	r4,2
     d8c:	21160004 	addi	r4,r4,22528
     d90:	00015900 	call	1590 <malloc>
     d94:	100b883a 	mov	r5,r2
     d98:	8009883a 	mov	r4,r16
     d9c:	0015ef40 	call	15ef4 <alt_up_pixel_buffer_dma_change_back_buffer_address>
	alt_up_pixel_buffer_dma_swap_buffers(lt24);
     da0:	d0a73517 	ldw	r2,-25388(gp)
     da4:	1009883a 	mov	r4,r2
     da8:	0015f500 	call	15f50 <alt_up_pixel_buffer_dma_swap_buffers>

	while(alt_up_pixel_buffer_dma_check_swap_buffers_status(lt24))
     dac:	0001883a 	nop
     db0:	d0a73517 	ldw	r2,-25388(gp)
     db4:	1009883a 	mov	r4,r2
     db8:	0015fb00 	call	15fb0 <alt_up_pixel_buffer_dma_check_swap_buffers_status>
     dbc:	103ffc1e 	bne	r2,zero,db0 <__alt_mem_Onchip_SRAM+0xf8000db0>
	{ /* make sure swap is done */ }
	alt_up_pixel_buffer_dma_change_back_buffer_address(lt24,(unsigned int)malloc(320*240*2));
     dc0:	d4273517 	ldw	r16,-25388(gp)
     dc4:	010000b4 	movhi	r4,2
     dc8:	21160004 	addi	r4,r4,22528
     dcc:	00015900 	call	1590 <malloc>
     dd0:	100b883a 	mov	r5,r2
     dd4:	8009883a 	mov	r4,r16
     dd8:	0015ef40 	call	15ef4 <alt_up_pixel_buffer_dma_change_back_buffer_address>

	// clear front buffers
	alt_up_pixel_buffer_dma_clear_screen(lt24,FRONT);
     ddc:	d0a73517 	ldw	r2,-25388(gp)
     de0:	000b883a 	mov	r5,zero
     de4:	1009883a 	mov	r4,r2
     de8:	0015fe40 	call	15fe4 <alt_up_pixel_buffer_dma_clear_screen>

	//Set initial box position to to left (0,0)
	x = 0;
     dec:	d0273015 	stw	zero,-25408(gp)
	y = 0;
     df0:	d0273115 	stw	zero,-25404(gp)
}
     df4:	0001883a 	nop
     df8:	e6ffff04 	addi	sp,fp,-4
     dfc:	dfc00217 	ldw	ra,8(sp)
     e00:	df000117 	ldw	fp,4(sp)
     e04:	dc000017 	ldw	r16,0(sp)
     e08:	dec00304 	addi	sp,sp,12
     e0c:	f800283a 	ret

00000e10 <draw_box_and_follow>:

void draw_box_and_follow(void){
     e10:	defffa04 	addi	sp,sp,-24
     e14:	dfc00515 	stw	ra,20(sp)
     e18:	df000415 	stw	fp,16(sp)
     e1c:	dc000315 	stw	r16,12(sp)
     e20:	df000404 	addi	fp,sp,16

    // Clear screen
    alt_up_pixel_buffer_dma_clear_screen(lt24, BACK);
     e24:	d0a73517 	ldw	r2,-25388(gp)
     e28:	01400044 	movi	r5,1
     e2c:	1009883a 	mov	r4,r2
     e30:	0015fe40 	call	15fe4 <alt_up_pixel_buffer_dma_clear_screen>

    //Genereate enemies
    draw_en();
     e34:	00007740 	call	774 <draw_en>

    //Draw horizontal line	//Draw the goal line at location
	alt_up_pixel_buffer_dma_draw_hline(lt24,0,width, get_end_dist(), RED, BACK);
     e38:	d4273517 	ldw	r16,-25388(gp)
     e3c:	00008fc0 	call	8fc <get_end_dist>
     e40:	1007883a 	mov	r3,r2
     e44:	00800044 	movi	r2,1
     e48:	d8800115 	stw	r2,4(sp)
     e4c:	00be0014 	movui	r2,63488
     e50:	d8800015 	stw	r2,0(sp)
     e54:	180f883a 	mov	r7,r3
     e58:	01805004 	movi	r6,320
     e5c:	000b883a 	mov	r5,zero
     e60:	8009883a 	mov	r4,r16
     e64:	001641c0 	call	1641c <alt_up_pixel_buffer_dma_draw_hline>

    // Draw a green 10x10 box at the updated player position
    alt_up_pixel_buffer_dma_draw_box(lt24, 0 + x, 0 + y, 10 + x, 10 + y, GREEN, BACK);
     e68:	d1273517 	ldw	r4,-25388(gp)
     e6c:	d1673017 	ldw	r5,-25408(gp)
     e70:	d1a73117 	ldw	r6,-25404(gp)
     e74:	d0a73017 	ldw	r2,-25408(gp)
     e78:	11c00284 	addi	r7,r2,10
     e7c:	d0a73117 	ldw	r2,-25404(gp)
     e80:	10800284 	addi	r2,r2,10
     e84:	00c00044 	movi	r3,1
     e88:	d8c00215 	stw	r3,8(sp)
     e8c:	00c1f804 	movi	r3,2016
     e90:	d8c00115 	stw	r3,4(sp)
     e94:	d8800015 	stw	r2,0(sp)
     e98:	00161200 	call	16120 <alt_up_pixel_buffer_dma_draw_box>

    // Update player position based on joystick input
    follow_joystick();
     e9c:	0000ec80 	call	ec8 <follow_joystick>

    // Swap buffers
    alt_up_pixel_buffer_dma_swap_buffers(lt24);
     ea0:	d0a73517 	ldw	r2,-25388(gp)
     ea4:	1009883a 	mov	r4,r2
     ea8:	0015f500 	call	15f50 <alt_up_pixel_buffer_dma_swap_buffers>
}
     eac:	0001883a 	nop
     eb0:	e6ffff04 	addi	sp,fp,-4
     eb4:	dfc00217 	ldw	ra,8(sp)
     eb8:	df000117 	ldw	fp,4(sp)
     ebc:	dc000017 	ldw	r16,0(sp)
     ec0:	dec00304 	addi	sp,sp,12
     ec4:	f800283a 	ret

00000ec8 <follow_joystick>:


void follow_joystick(void){
     ec8:	defffe04 	addi	sp,sp,-8
     ecc:	dfc00115 	stw	ra,4(sp)
     ed0:	df000015 	stw	fp,0(sp)
     ed4:	d839883a 	mov	fp,sp
	joystick_read();
     ed8:	0000c680 	call	c68 <joystick_read>
	 * Right: (-119, 0)
	 *
	 */

	//Check if moved down by checking against its variability (M.O.E)
	if(joystick_get_offset_y() < margin_of_error_low){
     edc:	0000d340 	call	d34 <joystick_get_offset_y>
     ee0:	10bffec8 	cmpgei	r2,r2,-5
     ee4:	1000041e 	bne	r2,zero,ef8 <follow_joystick+0x30>
		//Y-Center < -5
		//Down
		y-=5;
     ee8:	d0a73117 	ldw	r2,-25404(gp)
     eec:	10bffec4 	addi	r2,r2,-5
     ef0:	d0a73115 	stw	r2,-25404(gp)
     ef4:	00000606 	br	f10 <follow_joystick+0x48>
	} else if(joystick_get_offset_y() > margin_of_error_high){
     ef8:	0000d340 	call	d34 <joystick_get_offset_y>
     efc:	10800190 	cmplti	r2,r2,6
     f00:	1000031e 	bne	r2,zero,f10 <follow_joystick+0x48>
		//Y-Center > 5
		//Up
		y+=5;
     f04:	d0a73117 	ldw	r2,-25404(gp)
     f08:	10800144 	addi	r2,r2,5
     f0c:	d0a73115 	stw	r2,-25404(gp)
	}

	if(joystick_get_offset_x() < margin_of_error_low){
     f10:	0000d140 	call	d14 <joystick_get_offset_x>
     f14:	10bffec8 	cmpgei	r2,r2,-5
     f18:	1000041e 	bne	r2,zero,f2c <follow_joystick+0x64>
		//X-Center < -5
		//right
		x+=5;
     f1c:	d0a73017 	ldw	r2,-25408(gp)
     f20:	10800144 	addi	r2,r2,5
     f24:	d0a73015 	stw	r2,-25408(gp)
     f28:	00000606 	br	f44 <follow_joystick+0x7c>
	} else if(joystick_get_offset_x() > margin_of_error_high){
     f2c:	0000d140 	call	d14 <joystick_get_offset_x>
     f30:	10800190 	cmplti	r2,r2,6
     f34:	1000031e 	bne	r2,zero,f44 <follow_joystick+0x7c>
		//X-Center > 5
		//left
		x-=5;
     f38:	d0a73017 	ldw	r2,-25408(gp)
     f3c:	10bffec4 	addi	r2,r2,-5
     f40:	d0a73015 	stw	r2,-25408(gp)
	}

	//Check boundaries
	if(x < 0) x = 0;
     f44:	d0a73017 	ldw	r2,-25408(gp)
     f48:	1000010e 	bge	r2,zero,f50 <follow_joystick+0x88>
     f4c:	d0273015 	stw	zero,-25408(gp)
	if(y  < 0) y = 0;
     f50:	d0a73117 	ldw	r2,-25404(gp)
     f54:	1000010e 	bge	r2,zero,f5c <follow_joystick+0x94>
     f58:	d0273115 	stw	zero,-25404(gp)
	if(x > width-10) x = width-10;
     f5c:	d0a73017 	ldw	r2,-25408(gp)
     f60:	10804dd0 	cmplti	r2,r2,311
     f64:	1000021e 	bne	r2,zero,f70 <follow_joystick+0xa8>
     f68:	00804d84 	movi	r2,310
     f6c:	d0a73015 	stw	r2,-25408(gp)
	if(y > height-10) y = height-10;
     f70:	d0a73117 	ldw	r2,-25404(gp)
     f74:	108039d0 	cmplti	r2,r2,231
     f78:	1000021e 	bne	r2,zero,f84 <follow_joystick+0xbc>
     f7c:	00803984 	movi	r2,230
     f80:	d0a73115 	stw	r2,-25404(gp)
}
     f84:	0001883a 	nop
     f88:	e037883a 	mov	sp,fp
     f8c:	dfc00117 	ldw	ra,4(sp)
     f90:	df000017 	ldw	fp,0(sp)
     f94:	dec00204 	addi	sp,sp,8
     f98:	f800283a 	ret

00000f9c <follow_touch>:

void follow_touch(void){
     f9c:	defff904 	addi	sp,sp,-28
     fa0:	dfc00615 	stw	ra,24(sp)
     fa4:	df000515 	stw	fp,20(sp)
     fa8:	df000504 	addi	fp,sp,20
	//Return code. Not used
	int return_code = 0;
     fac:	e03ffe15 	stw	zero,-8(fp)

	//Mode
	const uint8_t getx = 0x92;
     fb0:	00bfe484 	movi	r2,-110
     fb4:	e0bfff05 	stb	r2,-4(fp)
	const uint8_t gety =  0xD2;
     fb8:	00bff484 	movi	r2,-46
     fbc:	e0bfff45 	stb	r2,-3(fp)

	uint8_t recieve[2];

	return_code = alt_avalon_spi_command(SPI_0_BASE,0,1,&getx,2,recieve,0);
     fc0:	e0ffff04 	addi	r3,fp,-4
     fc4:	d8000215 	stw	zero,8(sp)
     fc8:	e0bfff84 	addi	r2,fp,-2
     fcc:	d8800115 	stw	r2,4(sp)
     fd0:	00800084 	movi	r2,2
     fd4:	d8800015 	stw	r2,0(sp)
     fd8:	180f883a 	mov	r7,r3
     fdc:	01800044 	movi	r6,1
     fe0:	000b883a 	mov	r5,zero
     fe4:	013fc834 	movhi	r4,65312
     fe8:	21004004 	addi	r4,r4,256
     fec:	00154b40 	call	154b4 <alt_avalon_spi_command>
     ff0:	e0bffe15 	stw	r2,-8(fp)
	xtouch = (recieve[0] << 5 | recieve[1] >> 3);
     ff4:	e0bfff83 	ldbu	r2,-2(fp)
     ff8:	10803fcc 	andi	r2,r2,255
     ffc:	1004917a 	slli	r2,r2,5
    1000:	1007883a 	mov	r3,r2
    1004:	e0bfffc3 	ldbu	r2,-1(fp)
    1008:	10803fcc 	andi	r2,r2,255
    100c:	1004d0fa 	srli	r2,r2,3
    1010:	10803fcc 	andi	r2,r2,255
    1014:	1884b03a 	or	r2,r3,r2
    1018:	d0a7320d 	sth	r2,-25400(gp)
	return_code = alt_avalon_spi_command(SPI_0_BASE,0,1,&gety,2,recieve,0);
    101c:	e0ffff44 	addi	r3,fp,-3
    1020:	d8000215 	stw	zero,8(sp)
    1024:	e0bfff84 	addi	r2,fp,-2
    1028:	d8800115 	stw	r2,4(sp)
    102c:	00800084 	movi	r2,2
    1030:	d8800015 	stw	r2,0(sp)
    1034:	180f883a 	mov	r7,r3
    1038:	01800044 	movi	r6,1
    103c:	000b883a 	mov	r5,zero
    1040:	013fc834 	movhi	r4,65312
    1044:	21004004 	addi	r4,r4,256
    1048:	00154b40 	call	154b4 <alt_avalon_spi_command>
    104c:	e0bffe15 	stw	r2,-8(fp)
	ytouch = recieve[0] << 5 | recieve[1]>>3;
    1050:	e0bfff83 	ldbu	r2,-2(fp)
    1054:	10803fcc 	andi	r2,r2,255
    1058:	1004917a 	slli	r2,r2,5
    105c:	1007883a 	mov	r3,r2
    1060:	e0bfffc3 	ldbu	r2,-1(fp)
    1064:	10803fcc 	andi	r2,r2,255
    1068:	1004d0fa 	srli	r2,r2,3
    106c:	10803fcc 	andi	r2,r2,255
    1070:	1884b03a 	or	r2,r3,r2
    1074:	d0a7328d 	sth	r2,-25398(gp)
	printf("X: %10d, Y: %10d\n", xtouch,ytouch);
    1078:	d0a7320b 	ldhu	r2,-25400(gp)
    107c:	10bfffcc 	andi	r2,r2,65535
    1080:	10a0001c 	xori	r2,r2,32768
    1084:	10a00004 	addi	r2,r2,-32768
    1088:	d0e7328b 	ldhu	r3,-25398(gp)
    108c:	18ffffcc 	andi	r3,r3,65535
    1090:	18e0001c 	xori	r3,r3,32768
    1094:	18e00004 	addi	r3,r3,-32768
    1098:	180d883a 	mov	r6,r3
    109c:	100b883a 	mov	r5,r2
    10a0:	010000b4 	movhi	r4,2
    10a4:	21209604 	addi	r4,r4,-32168
    10a8:	0001df40 	call	1df4 <printf>

	//Adjust to be in terms of height and width and not pixels
	xtouch = (xtouch * width) / max_x;
    10ac:	d0a7320b 	ldhu	r2,-25400(gp)
    10b0:	10bfffcc 	andi	r2,r2,65535
    10b4:	10a0001c 	xori	r2,r2,32768
    10b8:	10a00004 	addi	r2,r2,-32768
    10bc:	01405004 	movi	r5,320
    10c0:	1009883a 	mov	r4,r2
    10c4:	00015680 	call	1568 <__mulsi3>
    10c8:	01432004 	movi	r5,3200
    10cc:	1009883a 	mov	r4,r2
    10d0:	00013b40 	call	13b4 <__divsi3>
    10d4:	d0a7320d 	sth	r2,-25400(gp)
	ytouch = abs(((ytouch * height) / max_y)-height);
    10d8:	d0a7328b 	ldhu	r2,-25398(gp)
    10dc:	10bfffcc 	andi	r2,r2,65535
    10e0:	10a0001c 	xori	r2,r2,32768
    10e4:	10a00004 	addi	r2,r2,-32768
    10e8:	01403c04 	movi	r5,240
    10ec:	1009883a 	mov	r4,r2
    10f0:	00015680 	call	1568 <__mulsi3>
    10f4:	01434584 	movi	r5,3350
    10f8:	1009883a 	mov	r4,r2
    10fc:	00013b40 	call	13b4 <__divsi3>
    1100:	10bfc404 	addi	r2,r2,-240
    1104:	1000010e 	bge	r2,zero,110c <follow_touch+0x170>
    1108:	0085c83a 	sub	r2,zero,r2
    110c:	d0a7328d 	sth	r2,-25398(gp)


}
    1110:	0001883a 	nop
    1114:	e037883a 	mov	sp,fp
    1118:	dfc00117 	ldw	ra,4(sp)
    111c:	df000017 	ldw	fp,0(sp)
    1120:	dec00204 	addi	sp,sp,8
    1124:	f800283a 	ret

00001128 <isTouching>:


int isTouching(void){
    1128:	defffe04 	addi	sp,sp,-8
    112c:	dfc00115 	stw	ra,4(sp)
    1130:	df000015 	stw	fp,0(sp)
    1134:	d839883a 	mov	fp,sp
	//Set x
	follow_touch();
    1138:	0000f9c0 	call	f9c <follow_touch>
	//Return 1 if larger than max
	return(xtouch < notouch_x);
    113c:	d0a7320b 	ldhu	r2,-25400(gp)
    1140:	10bfffcc 	andi	r2,r2,65535
    1144:	10a0001c 	xori	r2,r2,32768
    1148:	10a00004 	addi	r2,r2,-32768
    114c:	10805510 	cmplti	r2,r2,340
    1150:	10803fcc 	andi	r2,r2,255
}
    1154:	e037883a 	mov	sp,fp
    1158:	dfc00117 	ldw	ra,4(sp)
    115c:	df000017 	ldw	fp,0(sp)
    1160:	dec00204 	addi	sp,sp,8
    1164:	f800283a 	ret

00001168 <draw_touch>:



void draw_touch(void) {
    1168:	defffa04 	addi	sp,sp,-24
    116c:	dfc00515 	stw	ra,20(sp)
    1170:	df000415 	stw	fp,16(sp)
    1174:	df000404 	addi	fp,sp,16
	if (isTouching()) {
    1178:	00011280 	call	1128 <isTouching>
    117c:	10003526 	beq	r2,zero,1254 <draw_touch+0xec>
		while(alt_up_pixel_buffer_dma_check_swap_buffers_status(lt24)) {
    1180:	0001883a 	nop
    1184:	d0a73517 	ldw	r2,-25388(gp)
    1188:	1009883a 	mov	r4,r2
    118c:	0015fb00 	call	15fb0 <alt_up_pixel_buffer_dma_check_swap_buffers_status>
    1190:	103ffc1e 	bne	r2,zero,1184 <__alt_mem_Onchip_SRAM+0xf8001184>
			/* make sure swap is done */
		}

		// Cycle through the colors in the array
		static int color_index = 0;
		unsigned short color = colors[color_index];
    1194:	d0e73417 	ldw	r3,-25392(gp)
    1198:	008000b4 	movhi	r2,2
    119c:	10a18c04 	addi	r2,r2,-31184
    11a0:	18c7883a 	add	r3,r3,r3
    11a4:	10c5883a 	add	r2,r2,r3
    11a8:	1080000b 	ldhu	r2,0(r2)
    11ac:	e0bfff0d 	sth	r2,-4(fp)
		color_index = (color_index + 1) % num_colors;
    11b0:	d0a73417 	ldw	r2,-25392(gp)
    11b4:	10800044 	addi	r2,r2,1
    11b8:	d0e00417 	ldw	r3,-32752(gp)
    11bc:	180b883a 	mov	r5,r3
    11c0:	1009883a 	mov	r4,r2
    11c4:	00014380 	call	1438 <__modsi3>
    11c8:	d0a73415 	stw	r2,-25392(gp)

		// Draw a box with the current color
		alt_up_pixel_buffer_dma_draw_box(lt24, xtouch, ytouch, xtouch+7, ytouch+7, color, BACK);
    11cc:	d2273517 	ldw	r8,-25388(gp)
    11d0:	d0a7320b 	ldhu	r2,-25400(gp)
    11d4:	117fffcc 	andi	r5,r2,65535
    11d8:	2960001c 	xori	r5,r5,32768
    11dc:	29600004 	addi	r5,r5,-32768
    11e0:	d0a7328b 	ldhu	r2,-25398(gp)
    11e4:	11bfffcc 	andi	r6,r2,65535
    11e8:	31a0001c 	xori	r6,r6,32768
    11ec:	31a00004 	addi	r6,r6,-32768
    11f0:	d0a7320b 	ldhu	r2,-25400(gp)
    11f4:	10bfffcc 	andi	r2,r2,65535
    11f8:	10a0001c 	xori	r2,r2,32768
    11fc:	10a00004 	addi	r2,r2,-32768
    1200:	11c001c4 	addi	r7,r2,7
    1204:	d0a7328b 	ldhu	r2,-25398(gp)
    1208:	10bfffcc 	andi	r2,r2,65535
    120c:	10a0001c 	xori	r2,r2,32768
    1210:	10a00004 	addi	r2,r2,-32768
    1214:	108001c4 	addi	r2,r2,7
    1218:	e0ffff0b 	ldhu	r3,-4(fp)
    121c:	01000044 	movi	r4,1
    1220:	d9000215 	stw	r4,8(sp)
    1224:	d8c00115 	stw	r3,4(sp)
    1228:	d8800015 	stw	r2,0(sp)
    122c:	4009883a 	mov	r4,r8
    1230:	00161200 	call	16120 <alt_up_pixel_buffer_dma_draw_box>

		// Swap buffers
		alt_up_pixel_buffer_dma_swap_buffers(lt24);
    1234:	d0a73517 	ldw	r2,-25388(gp)
    1238:	1009883a 	mov	r4,r2
    123c:	0015f500 	call	15f50 <alt_up_pixel_buffer_dma_swap_buffers>

		// Set the screen_drawn variable to 1, indicating that the screen has been drawn on
		screen_drawn = 1;
    1240:	00800044 	movi	r2,1
    1244:	d0a73315 	stw	r2,-25396(gp)
		//Add short delay
		usleep(6200);
    1248:	01060e04 	movi	r4,6200
    124c:	00129ec0 	call	129ec <usleep>
			// No longer touching and the screen has not been drawn on yet, so clear
			alt_up_pixel_buffer_dma_clear_screen(lt24,BACK);
			alt_up_pixel_buffer_dma_swap_buffers(lt24);
		}
	}
}
    1250:	00000d06 	br	1288 <draw_touch+0x120>
		screen_drawn = 1;
		//Add short delay
		usleep(6200);
	}
	else {
		if (screen_drawn) {
    1254:	d0a73317 	ldw	r2,-25396(gp)
    1258:	10000426 	beq	r2,zero,126c <draw_touch+0x104>
			// No longer touching, but the screen has been drawn on before, so don't clear
			alt_up_pixel_buffer_dma_swap_buffers(lt24);
    125c:	d0a73517 	ldw	r2,-25388(gp)
    1260:	1009883a 	mov	r4,r2
    1264:	0015f500 	call	15f50 <alt_up_pixel_buffer_dma_swap_buffers>
			// No longer touching and the screen has not been drawn on yet, so clear
			alt_up_pixel_buffer_dma_clear_screen(lt24,BACK);
			alt_up_pixel_buffer_dma_swap_buffers(lt24);
		}
	}
}
    1268:	00000706 	br	1288 <draw_touch+0x120>
		if (screen_drawn) {
			// No longer touching, but the screen has been drawn on before, so don't clear
			alt_up_pixel_buffer_dma_swap_buffers(lt24);
		} else {
			// No longer touching and the screen has not been drawn on yet, so clear
			alt_up_pixel_buffer_dma_clear_screen(lt24,BACK);
    126c:	d0a73517 	ldw	r2,-25388(gp)
    1270:	01400044 	movi	r5,1
    1274:	1009883a 	mov	r4,r2
    1278:	0015fe40 	call	15fe4 <alt_up_pixel_buffer_dma_clear_screen>
			alt_up_pixel_buffer_dma_swap_buffers(lt24);
    127c:	d0a73517 	ldw	r2,-25388(gp)
    1280:	1009883a 	mov	r4,r2
    1284:	0015f500 	call	15f50 <alt_up_pixel_buffer_dma_swap_buffers>
		}
	}
}
    1288:	0001883a 	nop
    128c:	e037883a 	mov	sp,fp
    1290:	dfc00117 	ldw	ra,4(sp)
    1294:	df000017 	ldw	fp,0(sp)
    1298:	dec00204 	addi	sp,sp,8
    129c:	f800283a 	ret

000012a0 <draw_box>:


/**
 * Draws enemy boxes at location x and y
 */
void draw_box(int x, int y, uint16_t color){
    12a0:	defff804 	addi	sp,sp,-32
    12a4:	dfc00715 	stw	ra,28(sp)
    12a8:	df000615 	stw	fp,24(sp)
    12ac:	df000604 	addi	fp,sp,24
    12b0:	e13ffd15 	stw	r4,-12(fp)
    12b4:	e17ffe15 	stw	r5,-8(fp)
    12b8:	3005883a 	mov	r2,r6
    12bc:	e0bfff0d 	sth	r2,-4(fp)
	alt_up_pixel_buffer_dma_draw_box(lt24, 0+x, 0+y, 10+x, 10+y, color, BACK);
    12c0:	d2273517 	ldw	r8,-25388(gp)
    12c4:	e0bffd17 	ldw	r2,-12(fp)
    12c8:	11400284 	addi	r5,r2,10
    12cc:	e0bffe17 	ldw	r2,-8(fp)
    12d0:	10800284 	addi	r2,r2,10
    12d4:	e0ffff0b 	ldhu	r3,-4(fp)
    12d8:	01000044 	movi	r4,1
    12dc:	d9000215 	stw	r4,8(sp)
    12e0:	d8c00115 	stw	r3,4(sp)
    12e4:	d8800015 	stw	r2,0(sp)
    12e8:	280f883a 	mov	r7,r5
    12ec:	e1bffe17 	ldw	r6,-8(fp)
    12f0:	e17ffd17 	ldw	r5,-12(fp)
    12f4:	4009883a 	mov	r4,r8
    12f8:	00161200 	call	16120 <alt_up_pixel_buffer_dma_draw_box>

}
    12fc:	0001883a 	nop
    1300:	e037883a 	mov	sp,fp
    1304:	dfc00117 	ldw	ra,4(sp)
    1308:	df000017 	ldw	fp,0(sp)
    130c:	dec00204 	addi	sp,sp,8
    1310:	f800283a 	ret

00001314 <clear_screen>:

void clear_screen(void){
    1314:	defffe04 	addi	sp,sp,-8
    1318:	dfc00115 	stw	ra,4(sp)
    131c:	df000015 	stw	fp,0(sp)
    1320:	d839883a 	mov	fp,sp
	alt_up_pixel_buffer_dma_clear_screen(lt24,FRONT);
    1324:	d0a73517 	ldw	r2,-25388(gp)
    1328:	000b883a 	mov	r5,zero
    132c:	1009883a 	mov	r4,r2
    1330:	0015fe40 	call	15fe4 <alt_up_pixel_buffer_dma_clear_screen>

}
    1334:	0001883a 	nop
    1338:	e037883a 	mov	sp,fp
    133c:	dfc00117 	ldw	ra,4(sp)
    1340:	df000017 	ldw	fp,0(sp)
    1344:	dec00204 	addi	sp,sp,8
    1348:	f800283a 	ret

0000134c <get_player_x>:

int get_player_x(void){
    134c:	deffff04 	addi	sp,sp,-4
    1350:	df000015 	stw	fp,0(sp)
    1354:	d839883a 	mov	fp,sp
	return x;
    1358:	d0a73017 	ldw	r2,-25408(gp)
}
    135c:	e037883a 	mov	sp,fp
    1360:	df000017 	ldw	fp,0(sp)
    1364:	dec00104 	addi	sp,sp,4
    1368:	f800283a 	ret

0000136c <get_player_y>:

int get_player_y(void){
    136c:	deffff04 	addi	sp,sp,-4
    1370:	df000015 	stw	fp,0(sp)
    1374:	d839883a 	mov	fp,sp
	return y;
    1378:	d0a73117 	ldw	r2,-25404(gp)
}
    137c:	e037883a 	mov	sp,fp
    1380:	df000017 	ldw	fp,0(sp)
    1384:	dec00104 	addi	sp,sp,4
    1388:	f800283a 	ret

0000138c <reset_player_cords>:

void reset_player_cords(void){
    138c:	deffff04 	addi	sp,sp,-4
    1390:	df000015 	stw	fp,0(sp)
    1394:	d839883a 	mov	fp,sp
	//Sets the cords to 0,0
	x = 0;
    1398:	d0273015 	stw	zero,-25408(gp)
	y = 0;
    139c:	d0273115 	stw	zero,-25404(gp)
}
    13a0:	0001883a 	nop
    13a4:	e037883a 	mov	sp,fp
    13a8:	df000017 	ldw	fp,0(sp)
    13ac:	dec00104 	addi	sp,sp,4
    13b0:	f800283a 	ret

000013b4 <__divsi3>:
    13b4:	20001b16 	blt	r4,zero,1424 <__divsi3+0x70>
    13b8:	000f883a 	mov	r7,zero
    13bc:	28001616 	blt	r5,zero,1418 <__divsi3+0x64>
    13c0:	200d883a 	mov	r6,r4
    13c4:	29001a2e 	bgeu	r5,r4,1430 <__divsi3+0x7c>
    13c8:	00800804 	movi	r2,32
    13cc:	00c00044 	movi	r3,1
    13d0:	00000106 	br	13d8 <__divsi3+0x24>
    13d4:	10000d26 	beq	r2,zero,140c <__divsi3+0x58>
    13d8:	294b883a 	add	r5,r5,r5
    13dc:	10bfffc4 	addi	r2,r2,-1
    13e0:	18c7883a 	add	r3,r3,r3
    13e4:	293ffb36 	bltu	r5,r4,13d4 <__alt_mem_Onchip_SRAM+0xf80013d4>
    13e8:	0005883a 	mov	r2,zero
    13ec:	18000726 	beq	r3,zero,140c <__divsi3+0x58>
    13f0:	0005883a 	mov	r2,zero
    13f4:	31400236 	bltu	r6,r5,1400 <__divsi3+0x4c>
    13f8:	314dc83a 	sub	r6,r6,r5
    13fc:	10c4b03a 	or	r2,r2,r3
    1400:	1806d07a 	srli	r3,r3,1
    1404:	280ad07a 	srli	r5,r5,1
    1408:	183ffa1e 	bne	r3,zero,13f4 <__alt_mem_Onchip_SRAM+0xf80013f4>
    140c:	38000126 	beq	r7,zero,1414 <__divsi3+0x60>
    1410:	0085c83a 	sub	r2,zero,r2
    1414:	f800283a 	ret
    1418:	014bc83a 	sub	r5,zero,r5
    141c:	39c0005c 	xori	r7,r7,1
    1420:	003fe706 	br	13c0 <__alt_mem_Onchip_SRAM+0xf80013c0>
    1424:	0109c83a 	sub	r4,zero,r4
    1428:	01c00044 	movi	r7,1
    142c:	003fe306 	br	13bc <__alt_mem_Onchip_SRAM+0xf80013bc>
    1430:	00c00044 	movi	r3,1
    1434:	003fee06 	br	13f0 <__alt_mem_Onchip_SRAM+0xf80013f0>

00001438 <__modsi3>:
    1438:	20001716 	blt	r4,zero,1498 <__modsi3+0x60>
    143c:	000f883a 	mov	r7,zero
    1440:	2005883a 	mov	r2,r4
    1444:	28001216 	blt	r5,zero,1490 <__modsi3+0x58>
    1448:	2900162e 	bgeu	r5,r4,14a4 <__modsi3+0x6c>
    144c:	01800804 	movi	r6,32
    1450:	00c00044 	movi	r3,1
    1454:	00000106 	br	145c <__modsi3+0x24>
    1458:	30000a26 	beq	r6,zero,1484 <__modsi3+0x4c>
    145c:	294b883a 	add	r5,r5,r5
    1460:	31bfffc4 	addi	r6,r6,-1
    1464:	18c7883a 	add	r3,r3,r3
    1468:	293ffb36 	bltu	r5,r4,1458 <__alt_mem_Onchip_SRAM+0xf8001458>
    146c:	18000526 	beq	r3,zero,1484 <__modsi3+0x4c>
    1470:	1806d07a 	srli	r3,r3,1
    1474:	11400136 	bltu	r2,r5,147c <__modsi3+0x44>
    1478:	1145c83a 	sub	r2,r2,r5
    147c:	280ad07a 	srli	r5,r5,1
    1480:	183ffb1e 	bne	r3,zero,1470 <__alt_mem_Onchip_SRAM+0xf8001470>
    1484:	38000126 	beq	r7,zero,148c <__modsi3+0x54>
    1488:	0085c83a 	sub	r2,zero,r2
    148c:	f800283a 	ret
    1490:	014bc83a 	sub	r5,zero,r5
    1494:	003fec06 	br	1448 <__alt_mem_Onchip_SRAM+0xf8001448>
    1498:	0109c83a 	sub	r4,zero,r4
    149c:	01c00044 	movi	r7,1
    14a0:	003fe706 	br	1440 <__alt_mem_Onchip_SRAM+0xf8001440>
    14a4:	00c00044 	movi	r3,1
    14a8:	003ff106 	br	1470 <__alt_mem_Onchip_SRAM+0xf8001470>

000014ac <__udivsi3>:
    14ac:	200d883a 	mov	r6,r4
    14b0:	2900152e 	bgeu	r5,r4,1508 <__udivsi3+0x5c>
    14b4:	28001416 	blt	r5,zero,1508 <__udivsi3+0x5c>
    14b8:	00800804 	movi	r2,32
    14bc:	00c00044 	movi	r3,1
    14c0:	00000206 	br	14cc <__udivsi3+0x20>
    14c4:	10000e26 	beq	r2,zero,1500 <__udivsi3+0x54>
    14c8:	28000516 	blt	r5,zero,14e0 <__udivsi3+0x34>
    14cc:	294b883a 	add	r5,r5,r5
    14d0:	10bfffc4 	addi	r2,r2,-1
    14d4:	18c7883a 	add	r3,r3,r3
    14d8:	293ffa36 	bltu	r5,r4,14c4 <__alt_mem_Onchip_SRAM+0xf80014c4>
    14dc:	18000826 	beq	r3,zero,1500 <__udivsi3+0x54>
    14e0:	0005883a 	mov	r2,zero
    14e4:	31400236 	bltu	r6,r5,14f0 <__udivsi3+0x44>
    14e8:	314dc83a 	sub	r6,r6,r5
    14ec:	10c4b03a 	or	r2,r2,r3
    14f0:	1806d07a 	srli	r3,r3,1
    14f4:	280ad07a 	srli	r5,r5,1
    14f8:	183ffa1e 	bne	r3,zero,14e4 <__alt_mem_Onchip_SRAM+0xf80014e4>
    14fc:	f800283a 	ret
    1500:	0005883a 	mov	r2,zero
    1504:	f800283a 	ret
    1508:	00c00044 	movi	r3,1
    150c:	003ff406 	br	14e0 <__alt_mem_Onchip_SRAM+0xf80014e0>

00001510 <__umodsi3>:
    1510:	2005883a 	mov	r2,r4
    1514:	2900122e 	bgeu	r5,r4,1560 <__umodsi3+0x50>
    1518:	28001116 	blt	r5,zero,1560 <__umodsi3+0x50>
    151c:	01800804 	movi	r6,32
    1520:	00c00044 	movi	r3,1
    1524:	00000206 	br	1530 <__umodsi3+0x20>
    1528:	30000c26 	beq	r6,zero,155c <__umodsi3+0x4c>
    152c:	28000516 	blt	r5,zero,1544 <__umodsi3+0x34>
    1530:	294b883a 	add	r5,r5,r5
    1534:	31bfffc4 	addi	r6,r6,-1
    1538:	18c7883a 	add	r3,r3,r3
    153c:	293ffa36 	bltu	r5,r4,1528 <__alt_mem_Onchip_SRAM+0xf8001528>
    1540:	18000626 	beq	r3,zero,155c <__umodsi3+0x4c>
    1544:	1806d07a 	srli	r3,r3,1
    1548:	11400136 	bltu	r2,r5,1550 <__umodsi3+0x40>
    154c:	1145c83a 	sub	r2,r2,r5
    1550:	280ad07a 	srli	r5,r5,1
    1554:	183ffb1e 	bne	r3,zero,1544 <__alt_mem_Onchip_SRAM+0xf8001544>
    1558:	f800283a 	ret
    155c:	f800283a 	ret
    1560:	00c00044 	movi	r3,1
    1564:	003ff706 	br	1544 <__alt_mem_Onchip_SRAM+0xf8001544>

00001568 <__mulsi3>:
    1568:	0005883a 	mov	r2,zero
    156c:	20000726 	beq	r4,zero,158c <__mulsi3+0x24>
    1570:	20c0004c 	andi	r3,r4,1
    1574:	2008d07a 	srli	r4,r4,1
    1578:	18000126 	beq	r3,zero,1580 <__mulsi3+0x18>
    157c:	1145883a 	add	r2,r2,r5
    1580:	294b883a 	add	r5,r5,r5
    1584:	203ffa1e 	bne	r4,zero,1570 <__alt_mem_Onchip_SRAM+0xf8001570>
    1588:	f800283a 	ret
    158c:	f800283a 	ret

00001590 <malloc>:
    1590:	008000b4 	movhi	r2,2
    1594:	10a88304 	addi	r2,r2,-24052
    1598:	200b883a 	mov	r5,r4
    159c:	11000017 	ldw	r4,0(r2)
    15a0:	00015b81 	jmpi	15b8 <_malloc_r>

000015a4 <free>:
    15a4:	008000b4 	movhi	r2,2
    15a8:	10a88304 	addi	r2,r2,-24052
    15ac:	200b883a 	mov	r5,r4
    15b0:	11000017 	ldw	r4,0(r2)
    15b4:	000892c1 	jmpi	892c <_free_r>

000015b8 <_malloc_r>:
    15b8:	defff504 	addi	sp,sp,-44
    15bc:	dc800315 	stw	r18,12(sp)
    15c0:	dfc00a15 	stw	ra,40(sp)
    15c4:	df000915 	stw	fp,36(sp)
    15c8:	ddc00815 	stw	r23,32(sp)
    15cc:	dd800715 	stw	r22,28(sp)
    15d0:	dd400615 	stw	r21,24(sp)
    15d4:	dd000515 	stw	r20,20(sp)
    15d8:	dcc00415 	stw	r19,16(sp)
    15dc:	dc400215 	stw	r17,8(sp)
    15e0:	dc000115 	stw	r16,4(sp)
    15e4:	288002c4 	addi	r2,r5,11
    15e8:	00c00584 	movi	r3,22
    15ec:	2025883a 	mov	r18,r4
    15f0:	18807f2e 	bgeu	r3,r2,17f0 <_malloc_r+0x238>
    15f4:	047ffe04 	movi	r17,-8
    15f8:	1462703a 	and	r17,r2,r17
    15fc:	8800a316 	blt	r17,zero,188c <_malloc_r+0x2d4>
    1600:	8940a236 	bltu	r17,r5,188c <_malloc_r+0x2d4>
    1604:	001258c0 	call	1258c <__malloc_lock>
    1608:	00807dc4 	movi	r2,503
    160c:	1441e92e 	bgeu	r2,r17,1db4 <_malloc_r+0x7fc>
    1610:	8804d27a 	srli	r2,r17,9
    1614:	1000a126 	beq	r2,zero,189c <_malloc_r+0x2e4>
    1618:	00c00104 	movi	r3,4
    161c:	18811e36 	bltu	r3,r2,1a98 <_malloc_r+0x4e0>
    1620:	8804d1ba 	srli	r2,r17,6
    1624:	12000e44 	addi	r8,r2,57
    1628:	11c00e04 	addi	r7,r2,56
    162c:	4209883a 	add	r4,r8,r8
    1630:	04c000b4 	movhi	r19,2
    1634:	2109883a 	add	r4,r4,r4
    1638:	9ce19004 	addi	r19,r19,-31168
    163c:	2109883a 	add	r4,r4,r4
    1640:	9909883a 	add	r4,r19,r4
    1644:	24000117 	ldw	r16,4(r4)
    1648:	213ffe04 	addi	r4,r4,-8
    164c:	24009726 	beq	r4,r16,18ac <_malloc_r+0x2f4>
    1650:	80800117 	ldw	r2,4(r16)
    1654:	01bfff04 	movi	r6,-4
    1658:	014003c4 	movi	r5,15
    165c:	1184703a 	and	r2,r2,r6
    1660:	1447c83a 	sub	r3,r2,r17
    1664:	28c00716 	blt	r5,r3,1684 <_malloc_r+0xcc>
    1668:	1800920e 	bge	r3,zero,18b4 <_malloc_r+0x2fc>
    166c:	84000317 	ldw	r16,12(r16)
    1670:	24008e26 	beq	r4,r16,18ac <_malloc_r+0x2f4>
    1674:	80800117 	ldw	r2,4(r16)
    1678:	1184703a 	and	r2,r2,r6
    167c:	1447c83a 	sub	r3,r2,r17
    1680:	28fff90e 	bge	r5,r3,1668 <__alt_mem_Onchip_SRAM+0xf8001668>
    1684:	3809883a 	mov	r4,r7
    1688:	018000b4 	movhi	r6,2
    168c:	9c000417 	ldw	r16,16(r19)
    1690:	31a19004 	addi	r6,r6,-31168
    1694:	32000204 	addi	r8,r6,8
    1698:	82013426 	beq	r16,r8,1b6c <_malloc_r+0x5b4>
    169c:	80c00117 	ldw	r3,4(r16)
    16a0:	00bfff04 	movi	r2,-4
    16a4:	188e703a 	and	r7,r3,r2
    16a8:	3c45c83a 	sub	r2,r7,r17
    16ac:	00c003c4 	movi	r3,15
    16b0:	18811f16 	blt	r3,r2,1b30 <_malloc_r+0x578>
    16b4:	32000515 	stw	r8,20(r6)
    16b8:	32000415 	stw	r8,16(r6)
    16bc:	10007f0e 	bge	r2,zero,18bc <_malloc_r+0x304>
    16c0:	00807fc4 	movi	r2,511
    16c4:	11c0fd36 	bltu	r2,r7,1abc <_malloc_r+0x504>
    16c8:	3806d0fa 	srli	r3,r7,3
    16cc:	01c00044 	movi	r7,1
    16d0:	30800117 	ldw	r2,4(r6)
    16d4:	19400044 	addi	r5,r3,1
    16d8:	294b883a 	add	r5,r5,r5
    16dc:	1807d0ba 	srai	r3,r3,2
    16e0:	294b883a 	add	r5,r5,r5
    16e4:	294b883a 	add	r5,r5,r5
    16e8:	298b883a 	add	r5,r5,r6
    16ec:	38c6983a 	sll	r3,r7,r3
    16f0:	29c00017 	ldw	r7,0(r5)
    16f4:	2a7ffe04 	addi	r9,r5,-8
    16f8:	1886b03a 	or	r3,r3,r2
    16fc:	82400315 	stw	r9,12(r16)
    1700:	81c00215 	stw	r7,8(r16)
    1704:	30c00115 	stw	r3,4(r6)
    1708:	2c000015 	stw	r16,0(r5)
    170c:	3c000315 	stw	r16,12(r7)
    1710:	2005d0ba 	srai	r2,r4,2
    1714:	01400044 	movi	r5,1
    1718:	288a983a 	sll	r5,r5,r2
    171c:	19406f36 	bltu	r3,r5,18dc <_malloc_r+0x324>
    1720:	28c4703a 	and	r2,r5,r3
    1724:	10000a1e 	bne	r2,zero,1750 <_malloc_r+0x198>
    1728:	00bfff04 	movi	r2,-4
    172c:	294b883a 	add	r5,r5,r5
    1730:	2088703a 	and	r4,r4,r2
    1734:	28c4703a 	and	r2,r5,r3
    1738:	21000104 	addi	r4,r4,4
    173c:	1000041e 	bne	r2,zero,1750 <_malloc_r+0x198>
    1740:	294b883a 	add	r5,r5,r5
    1744:	28c4703a 	and	r2,r5,r3
    1748:	21000104 	addi	r4,r4,4
    174c:	103ffc26 	beq	r2,zero,1740 <__alt_mem_Onchip_SRAM+0xf8001740>
    1750:	02bfff04 	movi	r10,-4
    1754:	024003c4 	movi	r9,15
    1758:	21800044 	addi	r6,r4,1
    175c:	318d883a 	add	r6,r6,r6
    1760:	318d883a 	add	r6,r6,r6
    1764:	318d883a 	add	r6,r6,r6
    1768:	998d883a 	add	r6,r19,r6
    176c:	333ffe04 	addi	r12,r6,-8
    1770:	2017883a 	mov	r11,r4
    1774:	31800104 	addi	r6,r6,4
    1778:	34000017 	ldw	r16,0(r6)
    177c:	31fffd04 	addi	r7,r6,-12
    1780:	81c0041e 	bne	r16,r7,1794 <_malloc_r+0x1dc>
    1784:	0000fb06 	br	1b74 <_malloc_r+0x5bc>
    1788:	1801030e 	bge	r3,zero,1b98 <_malloc_r+0x5e0>
    178c:	84000317 	ldw	r16,12(r16)
    1790:	81c0f826 	beq	r16,r7,1b74 <_malloc_r+0x5bc>
    1794:	80800117 	ldw	r2,4(r16)
    1798:	1284703a 	and	r2,r2,r10
    179c:	1447c83a 	sub	r3,r2,r17
    17a0:	48fff90e 	bge	r9,r3,1788 <__alt_mem_Onchip_SRAM+0xf8001788>
    17a4:	80800317 	ldw	r2,12(r16)
    17a8:	81000217 	ldw	r4,8(r16)
    17ac:	89400054 	ori	r5,r17,1
    17b0:	81400115 	stw	r5,4(r16)
    17b4:	20800315 	stw	r2,12(r4)
    17b8:	11000215 	stw	r4,8(r2)
    17bc:	8463883a 	add	r17,r16,r17
    17c0:	9c400515 	stw	r17,20(r19)
    17c4:	9c400415 	stw	r17,16(r19)
    17c8:	18800054 	ori	r2,r3,1
    17cc:	88800115 	stw	r2,4(r17)
    17d0:	8a000315 	stw	r8,12(r17)
    17d4:	8a000215 	stw	r8,8(r17)
    17d8:	88e3883a 	add	r17,r17,r3
    17dc:	88c00015 	stw	r3,0(r17)
    17e0:	9009883a 	mov	r4,r18
    17e4:	00125b00 	call	125b0 <__malloc_unlock>
    17e8:	80800204 	addi	r2,r16,8
    17ec:	00001b06 	br	185c <_malloc_r+0x2a4>
    17f0:	04400404 	movi	r17,16
    17f4:	89402536 	bltu	r17,r5,188c <_malloc_r+0x2d4>
    17f8:	001258c0 	call	1258c <__malloc_lock>
    17fc:	00800184 	movi	r2,6
    1800:	01000084 	movi	r4,2
    1804:	04c000b4 	movhi	r19,2
    1808:	1085883a 	add	r2,r2,r2
    180c:	9ce19004 	addi	r19,r19,-31168
    1810:	1085883a 	add	r2,r2,r2
    1814:	9885883a 	add	r2,r19,r2
    1818:	14000117 	ldw	r16,4(r2)
    181c:	10fffe04 	addi	r3,r2,-8
    1820:	80c0d926 	beq	r16,r3,1b88 <_malloc_r+0x5d0>
    1824:	80c00117 	ldw	r3,4(r16)
    1828:	81000317 	ldw	r4,12(r16)
    182c:	00bfff04 	movi	r2,-4
    1830:	1884703a 	and	r2,r3,r2
    1834:	81400217 	ldw	r5,8(r16)
    1838:	8085883a 	add	r2,r16,r2
    183c:	10c00117 	ldw	r3,4(r2)
    1840:	29000315 	stw	r4,12(r5)
    1844:	21400215 	stw	r5,8(r4)
    1848:	18c00054 	ori	r3,r3,1
    184c:	10c00115 	stw	r3,4(r2)
    1850:	9009883a 	mov	r4,r18
    1854:	00125b00 	call	125b0 <__malloc_unlock>
    1858:	80800204 	addi	r2,r16,8
    185c:	dfc00a17 	ldw	ra,40(sp)
    1860:	df000917 	ldw	fp,36(sp)
    1864:	ddc00817 	ldw	r23,32(sp)
    1868:	dd800717 	ldw	r22,28(sp)
    186c:	dd400617 	ldw	r21,24(sp)
    1870:	dd000517 	ldw	r20,20(sp)
    1874:	dcc00417 	ldw	r19,16(sp)
    1878:	dc800317 	ldw	r18,12(sp)
    187c:	dc400217 	ldw	r17,8(sp)
    1880:	dc000117 	ldw	r16,4(sp)
    1884:	dec00b04 	addi	sp,sp,44
    1888:	f800283a 	ret
    188c:	00800304 	movi	r2,12
    1890:	90800015 	stw	r2,0(r18)
    1894:	0005883a 	mov	r2,zero
    1898:	003ff006 	br	185c <__alt_mem_Onchip_SRAM+0xf800185c>
    189c:	01002004 	movi	r4,128
    18a0:	02001004 	movi	r8,64
    18a4:	01c00fc4 	movi	r7,63
    18a8:	003f6106 	br	1630 <__alt_mem_Onchip_SRAM+0xf8001630>
    18ac:	4009883a 	mov	r4,r8
    18b0:	003f7506 	br	1688 <__alt_mem_Onchip_SRAM+0xf8001688>
    18b4:	81000317 	ldw	r4,12(r16)
    18b8:	003fde06 	br	1834 <__alt_mem_Onchip_SRAM+0xf8001834>
    18bc:	81c5883a 	add	r2,r16,r7
    18c0:	11400117 	ldw	r5,4(r2)
    18c4:	9009883a 	mov	r4,r18
    18c8:	29400054 	ori	r5,r5,1
    18cc:	11400115 	stw	r5,4(r2)
    18d0:	00125b00 	call	125b0 <__malloc_unlock>
    18d4:	80800204 	addi	r2,r16,8
    18d8:	003fe006 	br	185c <__alt_mem_Onchip_SRAM+0xf800185c>
    18dc:	9c000217 	ldw	r16,8(r19)
    18e0:	00bfff04 	movi	r2,-4
    18e4:	85800117 	ldw	r22,4(r16)
    18e8:	b0ac703a 	and	r22,r22,r2
    18ec:	b4400336 	bltu	r22,r17,18fc <_malloc_r+0x344>
    18f0:	b445c83a 	sub	r2,r22,r17
    18f4:	00c003c4 	movi	r3,15
    18f8:	18805d16 	blt	r3,r2,1a70 <_malloc_r+0x4b8>
    18fc:	05c000b4 	movhi	r23,2
    1900:	008000b4 	movhi	r2,2
    1904:	10afb304 	addi	r2,r2,-16692
    1908:	bde88004 	addi	r23,r23,-24064
    190c:	15400017 	ldw	r21,0(r2)
    1910:	b8c00017 	ldw	r3,0(r23)
    1914:	00bfffc4 	movi	r2,-1
    1918:	858d883a 	add	r6,r16,r22
    191c:	8d6b883a 	add	r21,r17,r21
    1920:	1880ea26 	beq	r3,r2,1ccc <_malloc_r+0x714>
    1924:	ad4403c4 	addi	r21,r21,4111
    1928:	00bc0004 	movi	r2,-4096
    192c:	a8aa703a 	and	r21,r21,r2
    1930:	a80b883a 	mov	r5,r21
    1934:	9009883a 	mov	r4,r18
    1938:	d9800015 	stw	r6,0(sp)
    193c:	0001eac0 	call	1eac <_sbrk_r>
    1940:	1029883a 	mov	r20,r2
    1944:	00bfffc4 	movi	r2,-1
    1948:	d9800017 	ldw	r6,0(sp)
    194c:	a080e826 	beq	r20,r2,1cf0 <_malloc_r+0x738>
    1950:	a180a636 	bltu	r20,r6,1bec <_malloc_r+0x634>
    1954:	070000b4 	movhi	fp,2
    1958:	e72fc304 	addi	fp,fp,-16628
    195c:	e0800017 	ldw	r2,0(fp)
    1960:	a887883a 	add	r3,r21,r2
    1964:	e0c00015 	stw	r3,0(fp)
    1968:	3500e626 	beq	r6,r20,1d04 <_malloc_r+0x74c>
    196c:	b9000017 	ldw	r4,0(r23)
    1970:	00bfffc4 	movi	r2,-1
    1974:	2080ee26 	beq	r4,r2,1d30 <_malloc_r+0x778>
    1978:	a185c83a 	sub	r2,r20,r6
    197c:	10c5883a 	add	r2,r2,r3
    1980:	e0800015 	stw	r2,0(fp)
    1984:	a0c001cc 	andi	r3,r20,7
    1988:	1800bc26 	beq	r3,zero,1c7c <_malloc_r+0x6c4>
    198c:	a0e9c83a 	sub	r20,r20,r3
    1990:	00840204 	movi	r2,4104
    1994:	a5000204 	addi	r20,r20,8
    1998:	10c7c83a 	sub	r3,r2,r3
    199c:	a545883a 	add	r2,r20,r21
    19a0:	1083ffcc 	andi	r2,r2,4095
    19a4:	18abc83a 	sub	r21,r3,r2
    19a8:	a80b883a 	mov	r5,r21
    19ac:	9009883a 	mov	r4,r18
    19b0:	0001eac0 	call	1eac <_sbrk_r>
    19b4:	00ffffc4 	movi	r3,-1
    19b8:	10c0e126 	beq	r2,r3,1d40 <_malloc_r+0x788>
    19bc:	1505c83a 	sub	r2,r2,r20
    19c0:	1545883a 	add	r2,r2,r21
    19c4:	10800054 	ori	r2,r2,1
    19c8:	e0c00017 	ldw	r3,0(fp)
    19cc:	9d000215 	stw	r20,8(r19)
    19d0:	a0800115 	stw	r2,4(r20)
    19d4:	a8c7883a 	add	r3,r21,r3
    19d8:	e0c00015 	stw	r3,0(fp)
    19dc:	84c00e26 	beq	r16,r19,1a18 <_malloc_r+0x460>
    19e0:	018003c4 	movi	r6,15
    19e4:	3580a72e 	bgeu	r6,r22,1c84 <_malloc_r+0x6cc>
    19e8:	81400117 	ldw	r5,4(r16)
    19ec:	013ffe04 	movi	r4,-8
    19f0:	b0bffd04 	addi	r2,r22,-12
    19f4:	1104703a 	and	r2,r2,r4
    19f8:	2900004c 	andi	r4,r5,1
    19fc:	2088b03a 	or	r4,r4,r2
    1a00:	81000115 	stw	r4,4(r16)
    1a04:	01400144 	movi	r5,5
    1a08:	8089883a 	add	r4,r16,r2
    1a0c:	21400115 	stw	r5,4(r4)
    1a10:	21400215 	stw	r5,8(r4)
    1a14:	3080cd36 	bltu	r6,r2,1d4c <_malloc_r+0x794>
    1a18:	008000b4 	movhi	r2,2
    1a1c:	10afb204 	addi	r2,r2,-16696
    1a20:	11000017 	ldw	r4,0(r2)
    1a24:	20c0012e 	bgeu	r4,r3,1a2c <_malloc_r+0x474>
    1a28:	10c00015 	stw	r3,0(r2)
    1a2c:	008000b4 	movhi	r2,2
    1a30:	10afb104 	addi	r2,r2,-16700
    1a34:	11000017 	ldw	r4,0(r2)
    1a38:	9c000217 	ldw	r16,8(r19)
    1a3c:	20c0012e 	bgeu	r4,r3,1a44 <_malloc_r+0x48c>
    1a40:	10c00015 	stw	r3,0(r2)
    1a44:	80c00117 	ldw	r3,4(r16)
    1a48:	00bfff04 	movi	r2,-4
    1a4c:	1886703a 	and	r3,r3,r2
    1a50:	1c45c83a 	sub	r2,r3,r17
    1a54:	1c400236 	bltu	r3,r17,1a60 <_malloc_r+0x4a8>
    1a58:	00c003c4 	movi	r3,15
    1a5c:	18800416 	blt	r3,r2,1a70 <_malloc_r+0x4b8>
    1a60:	9009883a 	mov	r4,r18
    1a64:	00125b00 	call	125b0 <__malloc_unlock>
    1a68:	0005883a 	mov	r2,zero
    1a6c:	003f7b06 	br	185c <__alt_mem_Onchip_SRAM+0xf800185c>
    1a70:	88c00054 	ori	r3,r17,1
    1a74:	80c00115 	stw	r3,4(r16)
    1a78:	8463883a 	add	r17,r16,r17
    1a7c:	10800054 	ori	r2,r2,1
    1a80:	9c400215 	stw	r17,8(r19)
    1a84:	88800115 	stw	r2,4(r17)
    1a88:	9009883a 	mov	r4,r18
    1a8c:	00125b00 	call	125b0 <__malloc_unlock>
    1a90:	80800204 	addi	r2,r16,8
    1a94:	003f7106 	br	185c <__alt_mem_Onchip_SRAM+0xf800185c>
    1a98:	00c00504 	movi	r3,20
    1a9c:	18804a2e 	bgeu	r3,r2,1bc8 <_malloc_r+0x610>
    1aa0:	00c01504 	movi	r3,84
    1aa4:	18806e36 	bltu	r3,r2,1c60 <_malloc_r+0x6a8>
    1aa8:	8804d33a 	srli	r2,r17,12
    1aac:	12001bc4 	addi	r8,r2,111
    1ab0:	11c01b84 	addi	r7,r2,110
    1ab4:	4209883a 	add	r4,r8,r8
    1ab8:	003edd06 	br	1630 <__alt_mem_Onchip_SRAM+0xf8001630>
    1abc:	3804d27a 	srli	r2,r7,9
    1ac0:	00c00104 	movi	r3,4
    1ac4:	1880442e 	bgeu	r3,r2,1bd8 <_malloc_r+0x620>
    1ac8:	00c00504 	movi	r3,20
    1acc:	18808136 	bltu	r3,r2,1cd4 <_malloc_r+0x71c>
    1ad0:	11401704 	addi	r5,r2,92
    1ad4:	10c016c4 	addi	r3,r2,91
    1ad8:	294b883a 	add	r5,r5,r5
    1adc:	294b883a 	add	r5,r5,r5
    1ae0:	294b883a 	add	r5,r5,r5
    1ae4:	994b883a 	add	r5,r19,r5
    1ae8:	28800017 	ldw	r2,0(r5)
    1aec:	018000b4 	movhi	r6,2
    1af0:	297ffe04 	addi	r5,r5,-8
    1af4:	31a19004 	addi	r6,r6,-31168
    1af8:	28806526 	beq	r5,r2,1c90 <_malloc_r+0x6d8>
    1afc:	01bfff04 	movi	r6,-4
    1b00:	10c00117 	ldw	r3,4(r2)
    1b04:	1986703a 	and	r3,r3,r6
    1b08:	38c0022e 	bgeu	r7,r3,1b14 <_malloc_r+0x55c>
    1b0c:	10800217 	ldw	r2,8(r2)
    1b10:	28bffb1e 	bne	r5,r2,1b00 <__alt_mem_Onchip_SRAM+0xf8001b00>
    1b14:	11400317 	ldw	r5,12(r2)
    1b18:	98c00117 	ldw	r3,4(r19)
    1b1c:	81400315 	stw	r5,12(r16)
    1b20:	80800215 	stw	r2,8(r16)
    1b24:	2c000215 	stw	r16,8(r5)
    1b28:	14000315 	stw	r16,12(r2)
    1b2c:	003ef806 	br	1710 <__alt_mem_Onchip_SRAM+0xf8001710>
    1b30:	88c00054 	ori	r3,r17,1
    1b34:	80c00115 	stw	r3,4(r16)
    1b38:	8463883a 	add	r17,r16,r17
    1b3c:	34400515 	stw	r17,20(r6)
    1b40:	34400415 	stw	r17,16(r6)
    1b44:	10c00054 	ori	r3,r2,1
    1b48:	8a000315 	stw	r8,12(r17)
    1b4c:	8a000215 	stw	r8,8(r17)
    1b50:	88c00115 	stw	r3,4(r17)
    1b54:	88a3883a 	add	r17,r17,r2
    1b58:	88800015 	stw	r2,0(r17)
    1b5c:	9009883a 	mov	r4,r18
    1b60:	00125b00 	call	125b0 <__malloc_unlock>
    1b64:	80800204 	addi	r2,r16,8
    1b68:	003f3c06 	br	185c <__alt_mem_Onchip_SRAM+0xf800185c>
    1b6c:	30c00117 	ldw	r3,4(r6)
    1b70:	003ee706 	br	1710 <__alt_mem_Onchip_SRAM+0xf8001710>
    1b74:	5ac00044 	addi	r11,r11,1
    1b78:	588000cc 	andi	r2,r11,3
    1b7c:	31800204 	addi	r6,r6,8
    1b80:	103efd1e 	bne	r2,zero,1778 <__alt_mem_Onchip_SRAM+0xf8001778>
    1b84:	00002406 	br	1c18 <_malloc_r+0x660>
    1b88:	14000317 	ldw	r16,12(r2)
    1b8c:	143f251e 	bne	r2,r16,1824 <__alt_mem_Onchip_SRAM+0xf8001824>
    1b90:	21000084 	addi	r4,r4,2
    1b94:	003ebc06 	br	1688 <__alt_mem_Onchip_SRAM+0xf8001688>
    1b98:	8085883a 	add	r2,r16,r2
    1b9c:	10c00117 	ldw	r3,4(r2)
    1ba0:	81000317 	ldw	r4,12(r16)
    1ba4:	81400217 	ldw	r5,8(r16)
    1ba8:	18c00054 	ori	r3,r3,1
    1bac:	10c00115 	stw	r3,4(r2)
    1bb0:	29000315 	stw	r4,12(r5)
    1bb4:	21400215 	stw	r5,8(r4)
    1bb8:	9009883a 	mov	r4,r18
    1bbc:	00125b00 	call	125b0 <__malloc_unlock>
    1bc0:	80800204 	addi	r2,r16,8
    1bc4:	003f2506 	br	185c <__alt_mem_Onchip_SRAM+0xf800185c>
    1bc8:	12001704 	addi	r8,r2,92
    1bcc:	11c016c4 	addi	r7,r2,91
    1bd0:	4209883a 	add	r4,r8,r8
    1bd4:	003e9606 	br	1630 <__alt_mem_Onchip_SRAM+0xf8001630>
    1bd8:	3804d1ba 	srli	r2,r7,6
    1bdc:	11400e44 	addi	r5,r2,57
    1be0:	10c00e04 	addi	r3,r2,56
    1be4:	294b883a 	add	r5,r5,r5
    1be8:	003fbc06 	br	1adc <__alt_mem_Onchip_SRAM+0xf8001adc>
    1bec:	84ff5926 	beq	r16,r19,1954 <__alt_mem_Onchip_SRAM+0xf8001954>
    1bf0:	008000b4 	movhi	r2,2
    1bf4:	10a19004 	addi	r2,r2,-31168
    1bf8:	14000217 	ldw	r16,8(r2)
    1bfc:	00bfff04 	movi	r2,-4
    1c00:	80c00117 	ldw	r3,4(r16)
    1c04:	1886703a 	and	r3,r3,r2
    1c08:	003f9106 	br	1a50 <__alt_mem_Onchip_SRAM+0xf8001a50>
    1c0c:	60800217 	ldw	r2,8(r12)
    1c10:	213fffc4 	addi	r4,r4,-1
    1c14:	1300651e 	bne	r2,r12,1dac <_malloc_r+0x7f4>
    1c18:	208000cc 	andi	r2,r4,3
    1c1c:	633ffe04 	addi	r12,r12,-8
    1c20:	103ffa1e 	bne	r2,zero,1c0c <__alt_mem_Onchip_SRAM+0xf8001c0c>
    1c24:	98800117 	ldw	r2,4(r19)
    1c28:	0146303a 	nor	r3,zero,r5
    1c2c:	1884703a 	and	r2,r3,r2
    1c30:	98800115 	stw	r2,4(r19)
    1c34:	294b883a 	add	r5,r5,r5
    1c38:	117f2836 	bltu	r2,r5,18dc <__alt_mem_Onchip_SRAM+0xf80018dc>
    1c3c:	283f2726 	beq	r5,zero,18dc <__alt_mem_Onchip_SRAM+0xf80018dc>
    1c40:	2886703a 	and	r3,r5,r2
    1c44:	5809883a 	mov	r4,r11
    1c48:	183ec31e 	bne	r3,zero,1758 <__alt_mem_Onchip_SRAM+0xf8001758>
    1c4c:	294b883a 	add	r5,r5,r5
    1c50:	2886703a 	and	r3,r5,r2
    1c54:	21000104 	addi	r4,r4,4
    1c58:	183ffc26 	beq	r3,zero,1c4c <__alt_mem_Onchip_SRAM+0xf8001c4c>
    1c5c:	003ebe06 	br	1758 <__alt_mem_Onchip_SRAM+0xf8001758>
    1c60:	00c05504 	movi	r3,340
    1c64:	18801236 	bltu	r3,r2,1cb0 <_malloc_r+0x6f8>
    1c68:	8804d3fa 	srli	r2,r17,15
    1c6c:	12001e04 	addi	r8,r2,120
    1c70:	11c01dc4 	addi	r7,r2,119
    1c74:	4209883a 	add	r4,r8,r8
    1c78:	003e6d06 	br	1630 <__alt_mem_Onchip_SRAM+0xf8001630>
    1c7c:	00c40004 	movi	r3,4096
    1c80:	003f4606 	br	199c <__alt_mem_Onchip_SRAM+0xf800199c>
    1c84:	00800044 	movi	r2,1
    1c88:	a0800115 	stw	r2,4(r20)
    1c8c:	003f7406 	br	1a60 <__alt_mem_Onchip_SRAM+0xf8001a60>
    1c90:	1805d0ba 	srai	r2,r3,2
    1c94:	01c00044 	movi	r7,1
    1c98:	30c00117 	ldw	r3,4(r6)
    1c9c:	388e983a 	sll	r7,r7,r2
    1ca0:	2805883a 	mov	r2,r5
    1ca4:	38c6b03a 	or	r3,r7,r3
    1ca8:	30c00115 	stw	r3,4(r6)
    1cac:	003f9b06 	br	1b1c <__alt_mem_Onchip_SRAM+0xf8001b1c>
    1cb0:	00c15504 	movi	r3,1364
    1cb4:	18801a36 	bltu	r3,r2,1d20 <_malloc_r+0x768>
    1cb8:	8804d4ba 	srli	r2,r17,18
    1cbc:	12001f44 	addi	r8,r2,125
    1cc0:	11c01f04 	addi	r7,r2,124
    1cc4:	4209883a 	add	r4,r8,r8
    1cc8:	003e5906 	br	1630 <__alt_mem_Onchip_SRAM+0xf8001630>
    1ccc:	ad400404 	addi	r21,r21,16
    1cd0:	003f1706 	br	1930 <__alt_mem_Onchip_SRAM+0xf8001930>
    1cd4:	00c01504 	movi	r3,84
    1cd8:	18802336 	bltu	r3,r2,1d68 <_malloc_r+0x7b0>
    1cdc:	3804d33a 	srli	r2,r7,12
    1ce0:	11401bc4 	addi	r5,r2,111
    1ce4:	10c01b84 	addi	r3,r2,110
    1ce8:	294b883a 	add	r5,r5,r5
    1cec:	003f7b06 	br	1adc <__alt_mem_Onchip_SRAM+0xf8001adc>
    1cf0:	9c000217 	ldw	r16,8(r19)
    1cf4:	00bfff04 	movi	r2,-4
    1cf8:	80c00117 	ldw	r3,4(r16)
    1cfc:	1886703a 	and	r3,r3,r2
    1d00:	003f5306 	br	1a50 <__alt_mem_Onchip_SRAM+0xf8001a50>
    1d04:	3083ffcc 	andi	r2,r6,4095
    1d08:	103f181e 	bne	r2,zero,196c <__alt_mem_Onchip_SRAM+0xf800196c>
    1d0c:	99000217 	ldw	r4,8(r19)
    1d10:	b545883a 	add	r2,r22,r21
    1d14:	10800054 	ori	r2,r2,1
    1d18:	20800115 	stw	r2,4(r4)
    1d1c:	003f3e06 	br	1a18 <__alt_mem_Onchip_SRAM+0xf8001a18>
    1d20:	01003f84 	movi	r4,254
    1d24:	02001fc4 	movi	r8,127
    1d28:	01c01f84 	movi	r7,126
    1d2c:	003e4006 	br	1630 <__alt_mem_Onchip_SRAM+0xf8001630>
    1d30:	008000b4 	movhi	r2,2
    1d34:	10a88004 	addi	r2,r2,-24064
    1d38:	15000015 	stw	r20,0(r2)
    1d3c:	003f1106 	br	1984 <__alt_mem_Onchip_SRAM+0xf8001984>
    1d40:	00800044 	movi	r2,1
    1d44:	002b883a 	mov	r21,zero
    1d48:	003f1f06 	br	19c8 <__alt_mem_Onchip_SRAM+0xf80019c8>
    1d4c:	81400204 	addi	r5,r16,8
    1d50:	9009883a 	mov	r4,r18
    1d54:	000892c0 	call	892c <_free_r>
    1d58:	008000b4 	movhi	r2,2
    1d5c:	10afc304 	addi	r2,r2,-16628
    1d60:	10c00017 	ldw	r3,0(r2)
    1d64:	003f2c06 	br	1a18 <__alt_mem_Onchip_SRAM+0xf8001a18>
    1d68:	00c05504 	movi	r3,340
    1d6c:	18800536 	bltu	r3,r2,1d84 <_malloc_r+0x7cc>
    1d70:	3804d3fa 	srli	r2,r7,15
    1d74:	11401e04 	addi	r5,r2,120
    1d78:	10c01dc4 	addi	r3,r2,119
    1d7c:	294b883a 	add	r5,r5,r5
    1d80:	003f5606 	br	1adc <__alt_mem_Onchip_SRAM+0xf8001adc>
    1d84:	00c15504 	movi	r3,1364
    1d88:	18800536 	bltu	r3,r2,1da0 <_malloc_r+0x7e8>
    1d8c:	3804d4ba 	srli	r2,r7,18
    1d90:	11401f44 	addi	r5,r2,125
    1d94:	10c01f04 	addi	r3,r2,124
    1d98:	294b883a 	add	r5,r5,r5
    1d9c:	003f4f06 	br	1adc <__alt_mem_Onchip_SRAM+0xf8001adc>
    1da0:	01403f84 	movi	r5,254
    1da4:	00c01f84 	movi	r3,126
    1da8:	003f4c06 	br	1adc <__alt_mem_Onchip_SRAM+0xf8001adc>
    1dac:	98800117 	ldw	r2,4(r19)
    1db0:	003fa006 	br	1c34 <__alt_mem_Onchip_SRAM+0xf8001c34>
    1db4:	8808d0fa 	srli	r4,r17,3
    1db8:	20800044 	addi	r2,r4,1
    1dbc:	1085883a 	add	r2,r2,r2
    1dc0:	003e9006 	br	1804 <__alt_mem_Onchip_SRAM+0xf8001804>

00001dc4 <_printf_r>:
    1dc4:	defffd04 	addi	sp,sp,-12
    1dc8:	2805883a 	mov	r2,r5
    1dcc:	dfc00015 	stw	ra,0(sp)
    1dd0:	d9800115 	stw	r6,4(sp)
    1dd4:	d9c00215 	stw	r7,8(sp)
    1dd8:	21400217 	ldw	r5,8(r4)
    1ddc:	d9c00104 	addi	r7,sp,4
    1de0:	100d883a 	mov	r6,r2
    1de4:	00043f80 	call	43f8 <___vfprintf_internal_r>
    1de8:	dfc00017 	ldw	ra,0(sp)
    1dec:	dec00304 	addi	sp,sp,12
    1df0:	f800283a 	ret

00001df4 <printf>:
    1df4:	defffc04 	addi	sp,sp,-16
    1df8:	dfc00015 	stw	ra,0(sp)
    1dfc:	d9400115 	stw	r5,4(sp)
    1e00:	d9800215 	stw	r6,8(sp)
    1e04:	d9c00315 	stw	r7,12(sp)
    1e08:	008000b4 	movhi	r2,2
    1e0c:	10a88304 	addi	r2,r2,-24052
    1e10:	10800017 	ldw	r2,0(r2)
    1e14:	200b883a 	mov	r5,r4
    1e18:	d9800104 	addi	r6,sp,4
    1e1c:	11000217 	ldw	r4,8(r2)
    1e20:	00066d40 	call	66d4 <__vfprintf_internal>
    1e24:	dfc00017 	ldw	ra,0(sp)
    1e28:	dec00404 	addi	sp,sp,16
    1e2c:	f800283a 	ret

00001e30 <srand>:
    1e30:	008000b4 	movhi	r2,2
    1e34:	10a88304 	addi	r2,r2,-24052
    1e38:	10800017 	ldw	r2,0(r2)
    1e3c:	11002915 	stw	r4,164(r2)
    1e40:	10002a15 	stw	zero,168(r2)
    1e44:	f800283a 	ret

00001e48 <rand>:
    1e48:	008000b4 	movhi	r2,2
    1e4c:	defffe04 	addi	sp,sp,-8
    1e50:	10a88304 	addi	r2,r2,-24052
    1e54:	dc000015 	stw	r16,0(sp)
    1e58:	14000017 	ldw	r16,0(r2)
    1e5c:	dfc00115 	stw	ra,4(sp)
    1e60:	01932574 	movhi	r6,19605
    1e64:	81002917 	ldw	r4,164(r16)
    1e68:	81402a17 	ldw	r5,168(r16)
    1e6c:	01d614b4 	movhi	r7,22610
    1e70:	319fcb44 	addi	r6,r6,32557
    1e74:	39fd0b44 	addi	r7,r7,-3027
    1e78:	000e88c0 	call	e88c <__muldi3>
    1e7c:	11000044 	addi	r4,r2,1
    1e80:	2085803a 	cmpltu	r2,r4,r2
    1e84:	10c7883a 	add	r3,r2,r3
    1e88:	00a00034 	movhi	r2,32768
    1e8c:	10bfffc4 	addi	r2,r2,-1
    1e90:	1884703a 	and	r2,r3,r2
    1e94:	81002915 	stw	r4,164(r16)
    1e98:	80c02a15 	stw	r3,168(r16)
    1e9c:	dfc00117 	ldw	ra,4(sp)
    1ea0:	dc000017 	ldw	r16,0(sp)
    1ea4:	dec00204 	addi	sp,sp,8
    1ea8:	f800283a 	ret

00001eac <_sbrk_r>:
    1eac:	defffd04 	addi	sp,sp,-12
    1eb0:	dc000015 	stw	r16,0(sp)
    1eb4:	040000b4 	movhi	r16,2
    1eb8:	dc400115 	stw	r17,4(sp)
    1ebc:	842fb404 	addi	r16,r16,-16688
    1ec0:	2023883a 	mov	r17,r4
    1ec4:	2809883a 	mov	r4,r5
    1ec8:	dfc00215 	stw	ra,8(sp)
    1ecc:	80000015 	stw	zero,0(r16)
    1ed0:	00127980 	call	12798 <sbrk>
    1ed4:	00ffffc4 	movi	r3,-1
    1ed8:	10c00526 	beq	r2,r3,1ef0 <_sbrk_r+0x44>
    1edc:	dfc00217 	ldw	ra,8(sp)
    1ee0:	dc400117 	ldw	r17,4(sp)
    1ee4:	dc000017 	ldw	r16,0(sp)
    1ee8:	dec00304 	addi	sp,sp,12
    1eec:	f800283a 	ret
    1ef0:	80c00017 	ldw	r3,0(r16)
    1ef4:	183ff926 	beq	r3,zero,1edc <__alt_mem_Onchip_SRAM+0xf8001edc>
    1ef8:	88c00015 	stw	r3,0(r17)
    1efc:	003ff706 	br	1edc <__alt_mem_Onchip_SRAM+0xf8001edc>

00001f00 <_sprintf_r>:
    1f00:	deffe404 	addi	sp,sp,-112
    1f04:	2807883a 	mov	r3,r5
    1f08:	dfc01a15 	stw	ra,104(sp)
    1f0c:	d9c01b15 	stw	r7,108(sp)
    1f10:	00a00034 	movhi	r2,32768
    1f14:	10bfffc4 	addi	r2,r2,-1
    1f18:	02008204 	movi	r8,520
    1f1c:	d8800215 	stw	r2,8(sp)
    1f20:	d8800515 	stw	r2,20(sp)
    1f24:	d9c01b04 	addi	r7,sp,108
    1f28:	d80b883a 	mov	r5,sp
    1f2c:	00bfffc4 	movi	r2,-1
    1f30:	d8c00015 	stw	r3,0(sp)
    1f34:	d8c00415 	stw	r3,16(sp)
    1f38:	da00030d 	sth	r8,12(sp)
    1f3c:	d880038d 	sth	r2,14(sp)
    1f40:	00020ec0 	call	20ec <___svfprintf_internal_r>
    1f44:	d8c00017 	ldw	r3,0(sp)
    1f48:	18000005 	stb	zero,0(r3)
    1f4c:	dfc01a17 	ldw	ra,104(sp)
    1f50:	dec01c04 	addi	sp,sp,112
    1f54:	f800283a 	ret

00001f58 <sprintf>:
    1f58:	deffe304 	addi	sp,sp,-116
    1f5c:	2007883a 	mov	r3,r4
    1f60:	dfc01a15 	stw	ra,104(sp)
    1f64:	d9801b15 	stw	r6,108(sp)
    1f68:	d9c01c15 	stw	r7,112(sp)
    1f6c:	010000b4 	movhi	r4,2
    1f70:	21288304 	addi	r4,r4,-24052
    1f74:	21000017 	ldw	r4,0(r4)
    1f78:	00a00034 	movhi	r2,32768
    1f7c:	10bfffc4 	addi	r2,r2,-1
    1f80:	280d883a 	mov	r6,r5
    1f84:	02008204 	movi	r8,520
    1f88:	d8800215 	stw	r2,8(sp)
    1f8c:	d8800515 	stw	r2,20(sp)
    1f90:	d9c01b04 	addi	r7,sp,108
    1f94:	d80b883a 	mov	r5,sp
    1f98:	00bfffc4 	movi	r2,-1
    1f9c:	d8c00015 	stw	r3,0(sp)
    1fa0:	d8c00415 	stw	r3,16(sp)
    1fa4:	da00030d 	sth	r8,12(sp)
    1fa8:	d880038d 	sth	r2,14(sp)
    1fac:	00020ec0 	call	20ec <___svfprintf_internal_r>
    1fb0:	d8c00017 	ldw	r3,0(sp)
    1fb4:	18000005 	stb	zero,0(r3)
    1fb8:	dfc01a17 	ldw	ra,104(sp)
    1fbc:	dec01d04 	addi	sp,sp,116
    1fc0:	f800283a 	ret

00001fc4 <strcpy>:
    1fc4:	2906b03a 	or	r3,r5,r4
    1fc8:	18c000cc 	andi	r3,r3,3
    1fcc:	2005883a 	mov	r2,r4
    1fd0:	1800161e 	bne	r3,zero,202c <strcpy+0x68>
    1fd4:	29c00017 	ldw	r7,0(r5)
    1fd8:	02ffbff4 	movhi	r11,65279
    1fdc:	5affbfc4 	addi	r11,r11,-257
    1fe0:	02a02074 	movhi	r10,32897
    1fe4:	01c6303a 	nor	r3,zero,r7
    1fe8:	3ac9883a 	add	r4,r7,r11
    1fec:	52a02004 	addi	r10,r10,-32640
    1ff0:	20c6703a 	and	r3,r4,r3
    1ff4:	1a86703a 	and	r3,r3,r10
    1ff8:	18000c1e 	bne	r3,zero,202c <strcpy+0x68>
    1ffc:	1011883a 	mov	r8,r2
    2000:	41c00015 	stw	r7,0(r8)
    2004:	29400104 	addi	r5,r5,4
    2008:	29c00017 	ldw	r7,0(r5)
    200c:	41800104 	addi	r6,r8,4
    2010:	3011883a 	mov	r8,r6
    2014:	3ad3883a 	add	r9,r7,r11
    2018:	01c6303a 	nor	r3,zero,r7
    201c:	48c6703a 	and	r3,r9,r3
    2020:	1a86703a 	and	r3,r3,r10
    2024:	183ff626 	beq	r3,zero,2000 <__alt_mem_Onchip_SRAM+0xf8002000>
    2028:	00000106 	br	2030 <strcpy+0x6c>
    202c:	100d883a 	mov	r6,r2
    2030:	28c00003 	ldbu	r3,0(r5)
    2034:	31800044 	addi	r6,r6,1
    2038:	29400044 	addi	r5,r5,1
    203c:	30ffffc5 	stb	r3,-1(r6)
    2040:	18c03fcc 	andi	r3,r3,255
    2044:	18c0201c 	xori	r3,r3,128
    2048:	18ffe004 	addi	r3,r3,-128
    204c:	183ff81e 	bne	r3,zero,2030 <__alt_mem_Onchip_SRAM+0xf8002030>
    2050:	f800283a 	ret

00002054 <strlen>:
    2054:	208000cc 	andi	r2,r4,3
    2058:	10002026 	beq	r2,zero,20dc <strlen+0x88>
    205c:	20800007 	ldb	r2,0(r4)
    2060:	10002026 	beq	r2,zero,20e4 <strlen+0x90>
    2064:	2005883a 	mov	r2,r4
    2068:	00000206 	br	2074 <strlen+0x20>
    206c:	10c00007 	ldb	r3,0(r2)
    2070:	18001826 	beq	r3,zero,20d4 <strlen+0x80>
    2074:	10800044 	addi	r2,r2,1
    2078:	10c000cc 	andi	r3,r2,3
    207c:	183ffb1e 	bne	r3,zero,206c <__alt_mem_Onchip_SRAM+0xf800206c>
    2080:	10c00017 	ldw	r3,0(r2)
    2084:	01ffbff4 	movhi	r7,65279
    2088:	39ffbfc4 	addi	r7,r7,-257
    208c:	00ca303a 	nor	r5,zero,r3
    2090:	01a02074 	movhi	r6,32897
    2094:	19c7883a 	add	r3,r3,r7
    2098:	31a02004 	addi	r6,r6,-32640
    209c:	1946703a 	and	r3,r3,r5
    20a0:	1986703a 	and	r3,r3,r6
    20a4:	1800091e 	bne	r3,zero,20cc <strlen+0x78>
    20a8:	10800104 	addi	r2,r2,4
    20ac:	10c00017 	ldw	r3,0(r2)
    20b0:	19cb883a 	add	r5,r3,r7
    20b4:	00c6303a 	nor	r3,zero,r3
    20b8:	28c6703a 	and	r3,r5,r3
    20bc:	1986703a 	and	r3,r3,r6
    20c0:	183ff926 	beq	r3,zero,20a8 <__alt_mem_Onchip_SRAM+0xf80020a8>
    20c4:	00000106 	br	20cc <strlen+0x78>
    20c8:	10800044 	addi	r2,r2,1
    20cc:	10c00007 	ldb	r3,0(r2)
    20d0:	183ffd1e 	bne	r3,zero,20c8 <__alt_mem_Onchip_SRAM+0xf80020c8>
    20d4:	1105c83a 	sub	r2,r2,r4
    20d8:	f800283a 	ret
    20dc:	2005883a 	mov	r2,r4
    20e0:	003fe706 	br	2080 <__alt_mem_Onchip_SRAM+0xf8002080>
    20e4:	0005883a 	mov	r2,zero
    20e8:	f800283a 	ret

000020ec <___svfprintf_internal_r>:
    20ec:	deffb704 	addi	sp,sp,-292
    20f0:	dfc04815 	stw	ra,288(sp)
    20f4:	ddc04615 	stw	r23,280(sp)
    20f8:	d9402d15 	stw	r5,180(sp)
    20fc:	d9003915 	stw	r4,228(sp)
    2100:	302f883a 	mov	r23,r6
    2104:	d9c02e15 	stw	r7,184(sp)
    2108:	df004715 	stw	fp,284(sp)
    210c:	dd804515 	stw	r22,276(sp)
    2110:	dd404415 	stw	r21,272(sp)
    2114:	dd004315 	stw	r20,268(sp)
    2118:	dcc04215 	stw	r19,264(sp)
    211c:	dc804115 	stw	r18,260(sp)
    2120:	dc404015 	stw	r17,256(sp)
    2124:	dc003f15 	stw	r16,252(sp)
    2128:	0008ecc0 	call	8ecc <_localeconv_r>
    212c:	10800017 	ldw	r2,0(r2)
    2130:	1009883a 	mov	r4,r2
    2134:	d8803415 	stw	r2,208(sp)
    2138:	00020540 	call	2054 <strlen>
    213c:	d8c02d17 	ldw	r3,180(sp)
    2140:	d8803815 	stw	r2,224(sp)
    2144:	1880030b 	ldhu	r2,12(r3)
    2148:	1080200c 	andi	r2,r2,128
    214c:	10000226 	beq	r2,zero,2158 <___svfprintf_internal_r+0x6c>
    2150:	18800417 	ldw	r2,16(r3)
    2154:	1006b126 	beq	r2,zero,3c1c <___svfprintf_internal_r+0x1b30>
    2158:	dcc03917 	ldw	r19,228(sp)
    215c:	d8c00404 	addi	r3,sp,16
    2160:	054000b4 	movhi	r21,2
    2164:	d9001e04 	addi	r4,sp,120
    2168:	ad60ab84 	addi	r21,r21,-32082
    216c:	d8c01e15 	stw	r3,120(sp)
    2170:	d8002015 	stw	zero,128(sp)
    2174:	d8001f15 	stw	zero,124(sp)
    2178:	d8003315 	stw	zero,204(sp)
    217c:	d8003615 	stw	zero,216(sp)
    2180:	d8003715 	stw	zero,220(sp)
    2184:	1811883a 	mov	r8,r3
    2188:	d8003a15 	stw	zero,232(sp)
    218c:	d8003b15 	stw	zero,236(sp)
    2190:	d8002f15 	stw	zero,188(sp)
    2194:	d9002815 	stw	r4,160(sp)
    2198:	b8800007 	ldb	r2,0(r23)
    219c:	10027726 	beq	r2,zero,2b7c <___svfprintf_internal_r+0xa90>
    21a0:	00c00944 	movi	r3,37
    21a4:	b823883a 	mov	r17,r23
    21a8:	10c0021e 	bne	r2,r3,21b4 <___svfprintf_internal_r+0xc8>
    21ac:	00001406 	br	2200 <___svfprintf_internal_r+0x114>
    21b0:	10c00326 	beq	r2,r3,21c0 <___svfprintf_internal_r+0xd4>
    21b4:	8c400044 	addi	r17,r17,1
    21b8:	88800007 	ldb	r2,0(r17)
    21bc:	103ffc1e 	bne	r2,zero,21b0 <__alt_mem_Onchip_SRAM+0xf80021b0>
    21c0:	8de1c83a 	sub	r16,r17,r23
    21c4:	80000e26 	beq	r16,zero,2200 <___svfprintf_internal_r+0x114>
    21c8:	d8c02017 	ldw	r3,128(sp)
    21cc:	d8801f17 	ldw	r2,124(sp)
    21d0:	45c00015 	stw	r23,0(r8)
    21d4:	1c07883a 	add	r3,r3,r16
    21d8:	10800044 	addi	r2,r2,1
    21dc:	d8c02015 	stw	r3,128(sp)
    21e0:	44000115 	stw	r16,4(r8)
    21e4:	d8801f15 	stw	r2,124(sp)
    21e8:	00c001c4 	movi	r3,7
    21ec:	18809916 	blt	r3,r2,2454 <___svfprintf_internal_r+0x368>
    21f0:	42000204 	addi	r8,r8,8
    21f4:	d9402f17 	ldw	r5,188(sp)
    21f8:	2c0b883a 	add	r5,r5,r16
    21fc:	d9402f15 	stw	r5,188(sp)
    2200:	88800007 	ldb	r2,0(r17)
    2204:	10009a26 	beq	r2,zero,2470 <___svfprintf_internal_r+0x384>
    2208:	8dc00044 	addi	r23,r17,1
    220c:	8c400047 	ldb	r17,1(r17)
    2210:	0021883a 	mov	r16,zero
    2214:	00bfffc4 	movi	r2,-1
    2218:	0025883a 	mov	r18,zero
    221c:	dc002905 	stb	r16,164(sp)
    2220:	d8002785 	stb	zero,158(sp)
    2224:	d8002b05 	stb	zero,172(sp)
    2228:	d8802a15 	stw	r2,168(sp)
    222c:	d8003115 	stw	zero,196(sp)
    2230:	05001604 	movi	r20,88
    2234:	05800244 	movi	r22,9
    2238:	4039883a 	mov	fp,r8
    223c:	9021883a 	mov	r16,r18
    2240:	bdc00044 	addi	r23,r23,1
    2244:	88bff804 	addi	r2,r17,-32
    2248:	a0831e36 	bltu	r20,r2,2ec4 <___svfprintf_internal_r+0xdd8>
    224c:	100490ba 	slli	r2,r2,2
    2250:	00c00034 	movhi	r3,0
    2254:	18c89904 	addi	r3,r3,8804
    2258:	10c5883a 	add	r2,r2,r3
    225c:	10800017 	ldw	r2,0(r2)
    2260:	1000683a 	jmp	r2
    2264:	00002e0c 	andi	zero,zero,184
    2268:	00002ec4 	movi	zero,187
    226c:	00002ec4 	movi	zero,187
    2270:	00002e00 	call	2e0 <adc_read+0x34>
    2274:	00002ec4 	movi	zero,187
    2278:	00002ec4 	movi	zero,187
    227c:	00002ec4 	movi	zero,187
    2280:	00002ec4 	movi	zero,187
    2284:	00002ec4 	movi	zero,187
    2288:	00002ec4 	movi	zero,187
    228c:	000024cc 	andi	zero,zero,147
    2290:	00002d10 	cmplti	zero,zero,180
    2294:	00002ec4 	movi	zero,187
    2298:	000023d8 	cmpnei	zero,zero,143
    229c:	000024f0 	cmpltui	zero,zero,147
    22a0:	00002ec4 	movi	zero,187
    22a4:	0000257c 	xorhi	zero,zero,149
    22a8:	00002540 	call	254 <_start+0x24>
    22ac:	00002540 	call	254 <_start+0x24>
    22b0:	00002540 	call	254 <_start+0x24>
    22b4:	00002540 	call	254 <_start+0x24>
    22b8:	00002540 	call	254 <_start+0x24>
    22bc:	00002540 	call	254 <_start+0x24>
    22c0:	00002540 	call	254 <_start+0x24>
    22c4:	00002540 	call	254 <_start+0x24>
    22c8:	00002540 	call	254 <_start+0x24>
    22cc:	00002ec4 	movi	zero,187
    22d0:	00002ec4 	movi	zero,187
    22d4:	00002ec4 	movi	zero,187
    22d8:	00002ec4 	movi	zero,187
    22dc:	00002ec4 	movi	zero,187
    22e0:	00002ec4 	movi	zero,187
    22e4:	00002ec4 	movi	zero,187
    22e8:	00002ec4 	movi	zero,187
    22ec:	00002ec4 	movi	zero,187
    22f0:	00002ec4 	movi	zero,187
    22f4:	00002640 	call	264 <_start+0x34>
    22f8:	00002588 	cmpgei	zero,zero,150
    22fc:	00002ec4 	movi	zero,187
    2300:	00002588 	cmpgei	zero,zero,150
    2304:	00002ec4 	movi	zero,187
    2308:	00002ec4 	movi	zero,187
    230c:	00002ec4 	movi	zero,187
    2310:	00002ec4 	movi	zero,187
    2314:	00002634 	movhi	zero,152
    2318:	00002ec4 	movi	zero,187
    231c:	00002ec4 	movi	zero,187
    2320:	00002708 	cmpgei	zero,zero,156
    2324:	00002ec4 	movi	zero,187
    2328:	00002ec4 	movi	zero,187
    232c:	00002ec4 	movi	zero,187
    2330:	00002ec4 	movi	zero,187
    2334:	00002ec4 	movi	zero,187
    2338:	00002b84 	movi	zero,174
    233c:	00002ec4 	movi	zero,187
    2340:	00002ec4 	movi	zero,187
    2344:	00002bf0 	cmpltui	zero,zero,175
    2348:	00002ec4 	movi	zero,187
    234c:	00002ec4 	movi	zero,187
    2350:	00002ec4 	movi	zero,187
    2354:	00002ec4 	movi	zero,187
    2358:	00002ec4 	movi	zero,187
    235c:	00002ec4 	movi	zero,187
    2360:	00002ec4 	movi	zero,187
    2364:	00002ec4 	movi	zero,187
    2368:	00002ec4 	movi	zero,187
    236c:	00002ec4 	movi	zero,187
    2370:	00002cac 	andhi	zero,zero,178
    2374:	00002e2c 	andhi	zero,zero,184
    2378:	00002588 	cmpgei	zero,zero,150
    237c:	00002588 	cmpgei	zero,zero,150
    2380:	00002588 	cmpgei	zero,zero,150
    2384:	00002ea0 	cmpeqi	zero,zero,186
    2388:	00002e2c 	andhi	zero,zero,184
    238c:	00002ec4 	movi	zero,187
    2390:	00002ec4 	movi	zero,187
    2394:	00002e4c 	andi	zero,zero,185
    2398:	00002ec4 	movi	zero,187
    239c:	00002e60 	cmpeqi	zero,zero,185
    23a0:	00002cf0 	cmpltui	zero,zero,179
    23a4:	000023e4 	muli	zero,zero,143
    23a8:	00002d28 	cmpgeui	zero,zero,180
    23ac:	00002ec4 	movi	zero,187
    23b0:	00002d34 	movhi	zero,180
    23b4:	00002ec4 	movi	zero,187
    23b8:	00002d98 	cmpnei	zero,zero,182
    23bc:	00002ec4 	movi	zero,187
    23c0:	00002ec4 	movi	zero,187
    23c4:	00002db8 	rdprs	zero,zero,182
    23c8:	d8c03117 	ldw	r3,196(sp)
    23cc:	d8802e15 	stw	r2,184(sp)
    23d0:	00c7c83a 	sub	r3,zero,r3
    23d4:	d8c03115 	stw	r3,196(sp)
    23d8:	84000114 	ori	r16,r16,4
    23dc:	bc400007 	ldb	r17,0(r23)
    23e0:	003f9706 	br	2240 <__alt_mem_Onchip_SRAM+0xf8002240>
    23e4:	00800c04 	movi	r2,48
    23e8:	d8802705 	stb	r2,156(sp)
    23ec:	00801e04 	movi	r2,120
    23f0:	d8802745 	stb	r2,157(sp)
    23f4:	d9002a17 	ldw	r4,168(sp)
    23f8:	d8802e17 	ldw	r2,184(sp)
    23fc:	d8002785 	stb	zero,158(sp)
    2400:	e011883a 	mov	r8,fp
    2404:	10c00104 	addi	r3,r2,4
    2408:	15000017 	ldw	r20,0(r2)
    240c:	002d883a 	mov	r22,zero
    2410:	80800094 	ori	r2,r16,2
    2414:	2002b616 	blt	r4,zero,2ef0 <___svfprintf_internal_r+0xe04>
    2418:	00bfdfc4 	movi	r2,-129
    241c:	80a4703a 	and	r18,r16,r2
    2420:	d8c02e15 	stw	r3,184(sp)
    2424:	94800094 	ori	r18,r18,2
    2428:	a002a01e 	bne	r20,zero,2eac <___svfprintf_internal_r+0xdc0>
    242c:	014000b4 	movhi	r5,2
    2430:	2960a404 	addi	r5,r5,-32112
    2434:	d9403a15 	stw	r5,232(sp)
    2438:	04401e04 	movi	r17,120
    243c:	d8c02a17 	ldw	r3,168(sp)
    2440:	0039883a 	mov	fp,zero
    2444:	1801e626 	beq	r3,zero,2be0 <___svfprintf_internal_r+0xaf4>
    2448:	0029883a 	mov	r20,zero
    244c:	002d883a 	mov	r22,zero
    2450:	00020506 	br	2c68 <___svfprintf_internal_r+0xb7c>
    2454:	d9402d17 	ldw	r5,180(sp)
    2458:	d9801e04 	addi	r6,sp,120
    245c:	9809883a 	mov	r4,r19
    2460:	000a7500 	call	a750 <__ssprint_r>
    2464:	1000081e 	bne	r2,zero,2488 <___svfprintf_internal_r+0x39c>
    2468:	da000404 	addi	r8,sp,16
    246c:	003f6106 	br	21f4 <__alt_mem_Onchip_SRAM+0xf80021f4>
    2470:	d8802017 	ldw	r2,128(sp)
    2474:	10000426 	beq	r2,zero,2488 <___svfprintf_internal_r+0x39c>
    2478:	d9402d17 	ldw	r5,180(sp)
    247c:	d9003917 	ldw	r4,228(sp)
    2480:	d9801e04 	addi	r6,sp,120
    2484:	000a7500 	call	a750 <__ssprint_r>
    2488:	d8802d17 	ldw	r2,180(sp)
    248c:	10c0030b 	ldhu	r3,12(r2)
    2490:	d8802f17 	ldw	r2,188(sp)
    2494:	18c0100c 	andi	r3,r3,64
    2498:	1806251e 	bne	r3,zero,3d30 <___svfprintf_internal_r+0x1c44>
    249c:	dfc04817 	ldw	ra,288(sp)
    24a0:	df004717 	ldw	fp,284(sp)
    24a4:	ddc04617 	ldw	r23,280(sp)
    24a8:	dd804517 	ldw	r22,276(sp)
    24ac:	dd404417 	ldw	r21,272(sp)
    24b0:	dd004317 	ldw	r20,268(sp)
    24b4:	dcc04217 	ldw	r19,264(sp)
    24b8:	dc804117 	ldw	r18,260(sp)
    24bc:	dc404017 	ldw	r17,256(sp)
    24c0:	dc003f17 	ldw	r16,252(sp)
    24c4:	dec04904 	addi	sp,sp,292
    24c8:	f800283a 	ret
    24cc:	d9002e17 	ldw	r4,184(sp)
    24d0:	d9402e17 	ldw	r5,184(sp)
    24d4:	21000017 	ldw	r4,0(r4)
    24d8:	28800104 	addi	r2,r5,4
    24dc:	d9003115 	stw	r4,196(sp)
    24e0:	203fb916 	blt	r4,zero,23c8 <__alt_mem_Onchip_SRAM+0xf80023c8>
    24e4:	d8802e15 	stw	r2,184(sp)
    24e8:	bc400007 	ldb	r17,0(r23)
    24ec:	003f5406 	br	2240 <__alt_mem_Onchip_SRAM+0xf8002240>
    24f0:	bc400007 	ldb	r17,0(r23)
    24f4:	01000a84 	movi	r4,42
    24f8:	b8c00044 	addi	r3,r23,1
    24fc:	89076926 	beq	r17,r4,42a4 <___svfprintf_internal_r+0x21b8>
    2500:	8cbff404 	addi	r18,r17,-48
    2504:	b486b936 	bltu	r22,r18,3fec <___svfprintf_internal_r+0x1f00>
    2508:	0009883a 	mov	r4,zero
    250c:	1823883a 	mov	r17,r3
    2510:	01400284 	movi	r5,10
    2514:	00015680 	call	1568 <__mulsi3>
    2518:	88c00007 	ldb	r3,0(r17)
    251c:	1489883a 	add	r4,r2,r18
    2520:	8dc00044 	addi	r23,r17,1
    2524:	1cbff404 	addi	r18,r3,-48
    2528:	b823883a 	mov	r17,r23
    252c:	b4bff82e 	bgeu	r22,r18,2510 <__alt_mem_Onchip_SRAM+0xf8002510>
    2530:	1823883a 	mov	r17,r3
    2534:	20060416 	blt	r4,zero,3d48 <___svfprintf_internal_r+0x1c5c>
    2538:	d9002a15 	stw	r4,168(sp)
    253c:	003f4106 	br	2244 <__alt_mem_Onchip_SRAM+0xf8002244>
    2540:	8cbff404 	addi	r18,r17,-48
    2544:	d8003115 	stw	zero,196(sp)
    2548:	0009883a 	mov	r4,zero
    254c:	b823883a 	mov	r17,r23
    2550:	01400284 	movi	r5,10
    2554:	00015680 	call	1568 <__mulsi3>
    2558:	88c00007 	ldb	r3,0(r17)
    255c:	9089883a 	add	r4,r18,r2
    2560:	bdc00044 	addi	r23,r23,1
    2564:	1cbff404 	addi	r18,r3,-48
    2568:	b823883a 	mov	r17,r23
    256c:	b4bff82e 	bgeu	r22,r18,2550 <__alt_mem_Onchip_SRAM+0xf8002550>
    2570:	1823883a 	mov	r17,r3
    2574:	d9003115 	stw	r4,196(sp)
    2578:	003f3206 	br	2244 <__alt_mem_Onchip_SRAM+0xf8002244>
    257c:	84002014 	ori	r16,r16,128
    2580:	bc400007 	ldb	r17,0(r23)
    2584:	003f2e06 	br	2240 <__alt_mem_Onchip_SRAM+0xf8002240>
    2588:	8025883a 	mov	r18,r16
    258c:	dc002903 	ldbu	r16,164(sp)
    2590:	e011883a 	mov	r8,fp
    2594:	84003fcc 	andi	r16,r16,255
    2598:	8007721e 	bne	r16,zero,4364 <___svfprintf_internal_r+0x2278>
    259c:	9080020c 	andi	r2,r18,8
    25a0:	1004a526 	beq	r2,zero,3838 <___svfprintf_internal_r+0x174c>
    25a4:	d9002e17 	ldw	r4,184(sp)
    25a8:	d9402e17 	ldw	r5,184(sp)
    25ac:	d8802e17 	ldw	r2,184(sp)
    25b0:	21000017 	ldw	r4,0(r4)
    25b4:	29400117 	ldw	r5,4(r5)
    25b8:	10800204 	addi	r2,r2,8
    25bc:	d9003615 	stw	r4,216(sp)
    25c0:	d9403715 	stw	r5,220(sp)
    25c4:	d8802e15 	stw	r2,184(sp)
    25c8:	d9003617 	ldw	r4,216(sp)
    25cc:	d9403717 	ldw	r5,220(sp)
    25d0:	da003e15 	stw	r8,248(sp)
    25d4:	04000044 	movi	r16,1
    25d8:	000a4c40 	call	a4c4 <__fpclassifyd>
    25dc:	da003e17 	ldw	r8,248(sp)
    25e0:	1404731e 	bne	r2,r16,37b0 <___svfprintf_internal_r+0x16c4>
    25e4:	d9003617 	ldw	r4,216(sp)
    25e8:	d9403717 	ldw	r5,220(sp)
    25ec:	000d883a 	mov	r6,zero
    25f0:	000f883a 	mov	r7,zero
    25f4:	00109380 	call	10938 <__ledf2>
    25f8:	da003e17 	ldw	r8,248(sp)
    25fc:	10061b16 	blt	r2,zero,3e6c <___svfprintf_internal_r+0x1d80>
    2600:	df002783 	ldbu	fp,158(sp)
    2604:	008011c4 	movi	r2,71
    2608:	1445810e 	bge	r2,r17,3c10 <___svfprintf_internal_r+0x1b24>
    260c:	040000b4 	movhi	r16,2
    2610:	84209c04 	addi	r16,r16,-32144
    2614:	00c000c4 	movi	r3,3
    2618:	00bfdfc4 	movi	r2,-129
    261c:	d8c02915 	stw	r3,164(sp)
    2620:	90a4703a 	and	r18,r18,r2
    2624:	d8c02b15 	stw	r3,172(sp)
    2628:	d8002a15 	stw	zero,168(sp)
    262c:	d8003215 	stw	zero,200(sp)
    2630:	00006c06 	br	27e4 <___svfprintf_internal_r+0x6f8>
    2634:	84000214 	ori	r16,r16,8
    2638:	bc400007 	ldb	r17,0(r23)
    263c:	003f0006 	br	2240 <__alt_mem_Onchip_SRAM+0xf8002240>
    2640:	8025883a 	mov	r18,r16
    2644:	dc002903 	ldbu	r16,164(sp)
    2648:	e011883a 	mov	r8,fp
    264c:	84003fcc 	andi	r16,r16,255
    2650:	80073f1e 	bne	r16,zero,4350 <___svfprintf_internal_r+0x2264>
    2654:	94800414 	ori	r18,r18,16
    2658:	9080080c 	andi	r2,r18,32
    265c:	1003bb26 	beq	r2,zero,354c <___svfprintf_internal_r+0x1460>
    2660:	d9002e17 	ldw	r4,184(sp)
    2664:	20800117 	ldw	r2,4(r4)
    2668:	25000017 	ldw	r20,0(r4)
    266c:	21000204 	addi	r4,r4,8
    2670:	d9002e15 	stw	r4,184(sp)
    2674:	102d883a 	mov	r22,r2
    2678:	1003bd16 	blt	r2,zero,3570 <___svfprintf_internal_r+0x1484>
    267c:	d9002a17 	ldw	r4,168(sp)
    2680:	df002783 	ldbu	fp,158(sp)
    2684:	2003d016 	blt	r4,zero,35c8 <___svfprintf_internal_r+0x14dc>
    2688:	00ffdfc4 	movi	r3,-129
    268c:	a584b03a 	or	r2,r20,r22
    2690:	90e4703a 	and	r18,r18,r3
    2694:	10015026 	beq	r2,zero,2bd8 <___svfprintf_internal_r+0xaec>
    2698:	b0037026 	beq	r22,zero,345c <___svfprintf_internal_r+0x1370>
    269c:	dc402915 	stw	r17,164(sp)
    26a0:	dc001e04 	addi	r16,sp,120
    26a4:	b023883a 	mov	r17,r22
    26a8:	402d883a 	mov	r22,r8
    26ac:	a009883a 	mov	r4,r20
    26b0:	880b883a 	mov	r5,r17
    26b4:	01800284 	movi	r6,10
    26b8:	000f883a 	mov	r7,zero
    26bc:	000ef940 	call	ef94 <__umoddi3>
    26c0:	10800c04 	addi	r2,r2,48
    26c4:	843fffc4 	addi	r16,r16,-1
    26c8:	a009883a 	mov	r4,r20
    26cc:	880b883a 	mov	r5,r17
    26d0:	80800005 	stb	r2,0(r16)
    26d4:	01800284 	movi	r6,10
    26d8:	000f883a 	mov	r7,zero
    26dc:	000e9980 	call	e998 <__udivdi3>
    26e0:	1029883a 	mov	r20,r2
    26e4:	10c4b03a 	or	r2,r2,r3
    26e8:	1823883a 	mov	r17,r3
    26ec:	103fef1e 	bne	r2,zero,26ac <__alt_mem_Onchip_SRAM+0xf80026ac>
    26f0:	d8c02817 	ldw	r3,160(sp)
    26f4:	dc402917 	ldw	r17,164(sp)
    26f8:	b011883a 	mov	r8,r22
    26fc:	1c07c83a 	sub	r3,r3,r16
    2700:	d8c02b15 	stw	r3,172(sp)
    2704:	00003106 	br	27cc <___svfprintf_internal_r+0x6e0>
    2708:	8025883a 	mov	r18,r16
    270c:	dc002903 	ldbu	r16,164(sp)
    2710:	e011883a 	mov	r8,fp
    2714:	84003fcc 	andi	r16,r16,255
    2718:	80070a1e 	bne	r16,zero,4344 <___svfprintf_internal_r+0x2258>
    271c:	94800414 	ori	r18,r18,16
    2720:	9080080c 	andi	r2,r18,32
    2724:	1002f626 	beq	r2,zero,3300 <___svfprintf_internal_r+0x1214>
    2728:	d9002e17 	ldw	r4,184(sp)
    272c:	d9402a17 	ldw	r5,168(sp)
    2730:	d8002785 	stb	zero,158(sp)
    2734:	20800204 	addi	r2,r4,8
    2738:	25000017 	ldw	r20,0(r4)
    273c:	25800117 	ldw	r22,4(r4)
    2740:	28043716 	blt	r5,zero,3820 <___svfprintf_internal_r+0x1734>
    2744:	013fdfc4 	movi	r4,-129
    2748:	a586b03a 	or	r3,r20,r22
    274c:	d8802e15 	stw	r2,184(sp)
    2750:	9124703a 	and	r18,r18,r4
    2754:	1802f71e 	bne	r3,zero,3334 <___svfprintf_internal_r+0x1248>
    2758:	d9402a17 	ldw	r5,168(sp)
    275c:	0039883a 	mov	fp,zero
    2760:	2806df26 	beq	r5,zero,42e0 <___svfprintf_internal_r+0x21f4>
    2764:	0029883a 	mov	r20,zero
    2768:	002d883a 	mov	r22,zero
    276c:	dc001e04 	addi	r16,sp,120
    2770:	a006d0fa 	srli	r3,r20,3
    2774:	b008977a 	slli	r4,r22,29
    2778:	b02cd0fa 	srli	r22,r22,3
    277c:	a50001cc 	andi	r20,r20,7
    2780:	a0800c04 	addi	r2,r20,48
    2784:	843fffc4 	addi	r16,r16,-1
    2788:	20e8b03a 	or	r20,r4,r3
    278c:	80800005 	stb	r2,0(r16)
    2790:	a586b03a 	or	r3,r20,r22
    2794:	183ff61e 	bne	r3,zero,2770 <__alt_mem_Onchip_SRAM+0xf8002770>
    2798:	90c0004c 	andi	r3,r18,1
    279c:	18013f26 	beq	r3,zero,2c9c <___svfprintf_internal_r+0xbb0>
    27a0:	10803fcc 	andi	r2,r2,255
    27a4:	1080201c 	xori	r2,r2,128
    27a8:	10bfe004 	addi	r2,r2,-128
    27ac:	00c00c04 	movi	r3,48
    27b0:	10c13a26 	beq	r2,r3,2c9c <___svfprintf_internal_r+0xbb0>
    27b4:	80ffffc5 	stb	r3,-1(r16)
    27b8:	d8c02817 	ldw	r3,160(sp)
    27bc:	80bfffc4 	addi	r2,r16,-1
    27c0:	1021883a 	mov	r16,r2
    27c4:	1887c83a 	sub	r3,r3,r2
    27c8:	d8c02b15 	stw	r3,172(sp)
    27cc:	d8802b17 	ldw	r2,172(sp)
    27d0:	d9002a17 	ldw	r4,168(sp)
    27d4:	1100010e 	bge	r2,r4,27dc <___svfprintf_internal_r+0x6f0>
    27d8:	2005883a 	mov	r2,r4
    27dc:	d8802915 	stw	r2,164(sp)
    27e0:	d8003215 	stw	zero,200(sp)
    27e4:	e7003fcc 	andi	fp,fp,255
    27e8:	e700201c 	xori	fp,fp,128
    27ec:	e73fe004 	addi	fp,fp,-128
    27f0:	e0000326 	beq	fp,zero,2800 <___svfprintf_internal_r+0x714>
    27f4:	d8c02917 	ldw	r3,164(sp)
    27f8:	18c00044 	addi	r3,r3,1
    27fc:	d8c02915 	stw	r3,164(sp)
    2800:	90c0008c 	andi	r3,r18,2
    2804:	d8c02c15 	stw	r3,176(sp)
    2808:	18000326 	beq	r3,zero,2818 <___svfprintf_internal_r+0x72c>
    280c:	d8c02917 	ldw	r3,164(sp)
    2810:	18c00084 	addi	r3,r3,2
    2814:	d8c02915 	stw	r3,164(sp)
    2818:	90c0210c 	andi	r3,r18,132
    281c:	d8c03015 	stw	r3,192(sp)
    2820:	1801c31e 	bne	r3,zero,2f30 <___svfprintf_internal_r+0xe44>
    2824:	d9003117 	ldw	r4,196(sp)
    2828:	d8c02917 	ldw	r3,164(sp)
    282c:	20e9c83a 	sub	r20,r4,r3
    2830:	0501bf0e 	bge	zero,r20,2f30 <___svfprintf_internal_r+0xe44>
    2834:	02400404 	movi	r9,16
    2838:	d8c02017 	ldw	r3,128(sp)
    283c:	d8801f17 	ldw	r2,124(sp)
    2840:	4d053d0e 	bge	r9,r20,3d38 <___svfprintf_internal_r+0x1c4c>
    2844:	014000b4 	movhi	r5,2
    2848:	2960af84 	addi	r5,r5,-32066
    284c:	dc403c15 	stw	r17,240(sp)
    2850:	d9403515 	stw	r5,212(sp)
    2854:	a023883a 	mov	r17,r20
    2858:	482d883a 	mov	r22,r9
    285c:	9029883a 	mov	r20,r18
    2860:	070001c4 	movi	fp,7
    2864:	8025883a 	mov	r18,r16
    2868:	dc002d17 	ldw	r16,180(sp)
    286c:	00000306 	br	287c <___svfprintf_internal_r+0x790>
    2870:	8c7ffc04 	addi	r17,r17,-16
    2874:	42000204 	addi	r8,r8,8
    2878:	b440130e 	bge	r22,r17,28c8 <___svfprintf_internal_r+0x7dc>
    287c:	010000b4 	movhi	r4,2
    2880:	18c00404 	addi	r3,r3,16
    2884:	10800044 	addi	r2,r2,1
    2888:	2120af84 	addi	r4,r4,-32066
    288c:	41000015 	stw	r4,0(r8)
    2890:	45800115 	stw	r22,4(r8)
    2894:	d8c02015 	stw	r3,128(sp)
    2898:	d8801f15 	stw	r2,124(sp)
    289c:	e0bff40e 	bge	fp,r2,2870 <__alt_mem_Onchip_SRAM+0xf8002870>
    28a0:	d9801e04 	addi	r6,sp,120
    28a4:	800b883a 	mov	r5,r16
    28a8:	9809883a 	mov	r4,r19
    28ac:	000a7500 	call	a750 <__ssprint_r>
    28b0:	103ef51e 	bne	r2,zero,2488 <__alt_mem_Onchip_SRAM+0xf8002488>
    28b4:	8c7ffc04 	addi	r17,r17,-16
    28b8:	d8c02017 	ldw	r3,128(sp)
    28bc:	d8801f17 	ldw	r2,124(sp)
    28c0:	da000404 	addi	r8,sp,16
    28c4:	b47fed16 	blt	r22,r17,287c <__alt_mem_Onchip_SRAM+0xf800287c>
    28c8:	9021883a 	mov	r16,r18
    28cc:	a025883a 	mov	r18,r20
    28d0:	8829883a 	mov	r20,r17
    28d4:	dc403c17 	ldw	r17,240(sp)
    28d8:	d9403517 	ldw	r5,212(sp)
    28dc:	a0c7883a 	add	r3,r20,r3
    28e0:	10800044 	addi	r2,r2,1
    28e4:	41400015 	stw	r5,0(r8)
    28e8:	45000115 	stw	r20,4(r8)
    28ec:	d8c02015 	stw	r3,128(sp)
    28f0:	d8801f15 	stw	r2,124(sp)
    28f4:	010001c4 	movi	r4,7
    28f8:	2082c116 	blt	r4,r2,3400 <___svfprintf_internal_r+0x1314>
    28fc:	df002787 	ldb	fp,158(sp)
    2900:	42000204 	addi	r8,r8,8
    2904:	e0000c26 	beq	fp,zero,2938 <___svfprintf_internal_r+0x84c>
    2908:	d8801f17 	ldw	r2,124(sp)
    290c:	d9002784 	addi	r4,sp,158
    2910:	18c00044 	addi	r3,r3,1
    2914:	10800044 	addi	r2,r2,1
    2918:	41000015 	stw	r4,0(r8)
    291c:	01000044 	movi	r4,1
    2920:	41000115 	stw	r4,4(r8)
    2924:	d8c02015 	stw	r3,128(sp)
    2928:	d8801f15 	stw	r2,124(sp)
    292c:	010001c4 	movi	r4,7
    2930:	20825a16 	blt	r4,r2,329c <___svfprintf_internal_r+0x11b0>
    2934:	42000204 	addi	r8,r8,8
    2938:	d8802c17 	ldw	r2,176(sp)
    293c:	10000c26 	beq	r2,zero,2970 <___svfprintf_internal_r+0x884>
    2940:	d8801f17 	ldw	r2,124(sp)
    2944:	d9002704 	addi	r4,sp,156
    2948:	18c00084 	addi	r3,r3,2
    294c:	10800044 	addi	r2,r2,1
    2950:	41000015 	stw	r4,0(r8)
    2954:	01000084 	movi	r4,2
    2958:	41000115 	stw	r4,4(r8)
    295c:	d8c02015 	stw	r3,128(sp)
    2960:	d8801f15 	stw	r2,124(sp)
    2964:	010001c4 	movi	r4,7
    2968:	20825416 	blt	r4,r2,32bc <___svfprintf_internal_r+0x11d0>
    296c:	42000204 	addi	r8,r8,8
    2970:	d9003017 	ldw	r4,192(sp)
    2974:	00802004 	movi	r2,128
    2978:	2081b926 	beq	r4,r2,3060 <___svfprintf_internal_r+0xf74>
    297c:	d9402a17 	ldw	r5,168(sp)
    2980:	d8802b17 	ldw	r2,172(sp)
    2984:	28adc83a 	sub	r22,r5,r2
    2988:	05802f0e 	bge	zero,r22,2a48 <___svfprintf_internal_r+0x95c>
    298c:	07000404 	movi	fp,16
    2990:	d8801f17 	ldw	r2,124(sp)
    2994:	e583e20e 	bge	fp,r22,3920 <___svfprintf_internal_r+0x1834>
    2998:	014000b4 	movhi	r5,2
    299c:	2960ab84 	addi	r5,r5,-32082
    29a0:	dc402a15 	stw	r17,168(sp)
    29a4:	d9402c15 	stw	r5,176(sp)
    29a8:	b023883a 	mov	r17,r22
    29ac:	050001c4 	movi	r20,7
    29b0:	902d883a 	mov	r22,r18
    29b4:	8025883a 	mov	r18,r16
    29b8:	dc002d17 	ldw	r16,180(sp)
    29bc:	00000306 	br	29cc <___svfprintf_internal_r+0x8e0>
    29c0:	8c7ffc04 	addi	r17,r17,-16
    29c4:	42000204 	addi	r8,r8,8
    29c8:	e440110e 	bge	fp,r17,2a10 <___svfprintf_internal_r+0x924>
    29cc:	18c00404 	addi	r3,r3,16
    29d0:	10800044 	addi	r2,r2,1
    29d4:	45400015 	stw	r21,0(r8)
    29d8:	47000115 	stw	fp,4(r8)
    29dc:	d8c02015 	stw	r3,128(sp)
    29e0:	d8801f15 	stw	r2,124(sp)
    29e4:	a0bff60e 	bge	r20,r2,29c0 <__alt_mem_Onchip_SRAM+0xf80029c0>
    29e8:	d9801e04 	addi	r6,sp,120
    29ec:	800b883a 	mov	r5,r16
    29f0:	9809883a 	mov	r4,r19
    29f4:	000a7500 	call	a750 <__ssprint_r>
    29f8:	103ea31e 	bne	r2,zero,2488 <__alt_mem_Onchip_SRAM+0xf8002488>
    29fc:	8c7ffc04 	addi	r17,r17,-16
    2a00:	d8c02017 	ldw	r3,128(sp)
    2a04:	d8801f17 	ldw	r2,124(sp)
    2a08:	da000404 	addi	r8,sp,16
    2a0c:	e47fef16 	blt	fp,r17,29cc <__alt_mem_Onchip_SRAM+0xf80029cc>
    2a10:	9021883a 	mov	r16,r18
    2a14:	b025883a 	mov	r18,r22
    2a18:	882d883a 	mov	r22,r17
    2a1c:	dc402a17 	ldw	r17,168(sp)
    2a20:	d9002c17 	ldw	r4,176(sp)
    2a24:	1d87883a 	add	r3,r3,r22
    2a28:	10800044 	addi	r2,r2,1
    2a2c:	41000015 	stw	r4,0(r8)
    2a30:	45800115 	stw	r22,4(r8)
    2a34:	d8c02015 	stw	r3,128(sp)
    2a38:	d8801f15 	stw	r2,124(sp)
    2a3c:	010001c4 	movi	r4,7
    2a40:	20820e16 	blt	r4,r2,327c <___svfprintf_internal_r+0x1190>
    2a44:	42000204 	addi	r8,r8,8
    2a48:	9080400c 	andi	r2,r18,256
    2a4c:	10013a1e 	bne	r2,zero,2f38 <___svfprintf_internal_r+0xe4c>
    2a50:	d9402b17 	ldw	r5,172(sp)
    2a54:	d8801f17 	ldw	r2,124(sp)
    2a58:	44000015 	stw	r16,0(r8)
    2a5c:	1947883a 	add	r3,r3,r5
    2a60:	10800044 	addi	r2,r2,1
    2a64:	41400115 	stw	r5,4(r8)
    2a68:	d8c02015 	stw	r3,128(sp)
    2a6c:	d8801f15 	stw	r2,124(sp)
    2a70:	010001c4 	movi	r4,7
    2a74:	2081f316 	blt	r4,r2,3244 <___svfprintf_internal_r+0x1158>
    2a78:	42000204 	addi	r8,r8,8
    2a7c:	9480010c 	andi	r18,r18,4
    2a80:	90003226 	beq	r18,zero,2b4c <___svfprintf_internal_r+0xa60>
    2a84:	d9403117 	ldw	r5,196(sp)
    2a88:	d8802917 	ldw	r2,164(sp)
    2a8c:	28a1c83a 	sub	r16,r5,r2
    2a90:	04002e0e 	bge	zero,r16,2b4c <___svfprintf_internal_r+0xa60>
    2a94:	04400404 	movi	r17,16
    2a98:	d8801f17 	ldw	r2,124(sp)
    2a9c:	8c04db0e 	bge	r17,r16,3e0c <___svfprintf_internal_r+0x1d20>
    2aa0:	014000b4 	movhi	r5,2
    2aa4:	2960af84 	addi	r5,r5,-32066
    2aa8:	d9403515 	stw	r5,212(sp)
    2aac:	048001c4 	movi	r18,7
    2ab0:	dd002d17 	ldw	r20,180(sp)
    2ab4:	00000306 	br	2ac4 <___svfprintf_internal_r+0x9d8>
    2ab8:	843ffc04 	addi	r16,r16,-16
    2abc:	42000204 	addi	r8,r8,8
    2ac0:	8c00130e 	bge	r17,r16,2b10 <___svfprintf_internal_r+0xa24>
    2ac4:	010000b4 	movhi	r4,2
    2ac8:	18c00404 	addi	r3,r3,16
    2acc:	10800044 	addi	r2,r2,1
    2ad0:	2120af84 	addi	r4,r4,-32066
    2ad4:	41000015 	stw	r4,0(r8)
    2ad8:	44400115 	stw	r17,4(r8)
    2adc:	d8c02015 	stw	r3,128(sp)
    2ae0:	d8801f15 	stw	r2,124(sp)
    2ae4:	90bff40e 	bge	r18,r2,2ab8 <__alt_mem_Onchip_SRAM+0xf8002ab8>
    2ae8:	d9801e04 	addi	r6,sp,120
    2aec:	a00b883a 	mov	r5,r20
    2af0:	9809883a 	mov	r4,r19
    2af4:	000a7500 	call	a750 <__ssprint_r>
    2af8:	103e631e 	bne	r2,zero,2488 <__alt_mem_Onchip_SRAM+0xf8002488>
    2afc:	843ffc04 	addi	r16,r16,-16
    2b00:	d8c02017 	ldw	r3,128(sp)
    2b04:	d8801f17 	ldw	r2,124(sp)
    2b08:	da000404 	addi	r8,sp,16
    2b0c:	8c3fed16 	blt	r17,r16,2ac4 <__alt_mem_Onchip_SRAM+0xf8002ac4>
    2b10:	d9403517 	ldw	r5,212(sp)
    2b14:	1c07883a 	add	r3,r3,r16
    2b18:	10800044 	addi	r2,r2,1
    2b1c:	41400015 	stw	r5,0(r8)
    2b20:	44000115 	stw	r16,4(r8)
    2b24:	d8c02015 	stw	r3,128(sp)
    2b28:	d8801f15 	stw	r2,124(sp)
    2b2c:	010001c4 	movi	r4,7
    2b30:	2080060e 	bge	r4,r2,2b4c <___svfprintf_internal_r+0xa60>
    2b34:	d9402d17 	ldw	r5,180(sp)
    2b38:	d9801e04 	addi	r6,sp,120
    2b3c:	9809883a 	mov	r4,r19
    2b40:	000a7500 	call	a750 <__ssprint_r>
    2b44:	103e501e 	bne	r2,zero,2488 <__alt_mem_Onchip_SRAM+0xf8002488>
    2b48:	d8c02017 	ldw	r3,128(sp)
    2b4c:	d8803117 	ldw	r2,196(sp)
    2b50:	d9002917 	ldw	r4,164(sp)
    2b54:	1100010e 	bge	r2,r4,2b5c <___svfprintf_internal_r+0xa70>
    2b58:	2005883a 	mov	r2,r4
    2b5c:	d9402f17 	ldw	r5,188(sp)
    2b60:	288b883a 	add	r5,r5,r2
    2b64:	d9402f15 	stw	r5,188(sp)
    2b68:	1801be1e 	bne	r3,zero,3264 <___svfprintf_internal_r+0x1178>
    2b6c:	b8800007 	ldb	r2,0(r23)
    2b70:	d8001f15 	stw	zero,124(sp)
    2b74:	da000404 	addi	r8,sp,16
    2b78:	103d891e 	bne	r2,zero,21a0 <__alt_mem_Onchip_SRAM+0xf80021a0>
    2b7c:	b823883a 	mov	r17,r23
    2b80:	003d9f06 	br	2200 <__alt_mem_Onchip_SRAM+0xf8002200>
    2b84:	8025883a 	mov	r18,r16
    2b88:	dc002903 	ldbu	r16,164(sp)
    2b8c:	e011883a 	mov	r8,fp
    2b90:	84003fcc 	andi	r16,r16,255
    2b94:	8005e61e 	bne	r16,zero,4330 <___svfprintf_internal_r+0x2244>
    2b98:	94800414 	ori	r18,r18,16
    2b9c:	9080080c 	andi	r2,r18,32
    2ba0:	10022026 	beq	r2,zero,3424 <___svfprintf_internal_r+0x1338>
    2ba4:	d9002e17 	ldw	r4,184(sp)
    2ba8:	d9402a17 	ldw	r5,168(sp)
    2bac:	d8002785 	stb	zero,158(sp)
    2bb0:	20c00204 	addi	r3,r4,8
    2bb4:	25000017 	ldw	r20,0(r4)
    2bb8:	25800117 	ldw	r22,4(r4)
    2bbc:	2803ad16 	blt	r5,zero,3a74 <___svfprintf_internal_r+0x1988>
    2bc0:	013fdfc4 	movi	r4,-129
    2bc4:	a584b03a 	or	r2,r20,r22
    2bc8:	d8c02e15 	stw	r3,184(sp)
    2bcc:	9124703a 	and	r18,r18,r4
    2bd0:	0039883a 	mov	fp,zero
    2bd4:	103eb01e 	bne	r2,zero,2698 <__alt_mem_Onchip_SRAM+0xf8002698>
    2bd8:	d8802a17 	ldw	r2,168(sp)
    2bdc:	1002e71e 	bne	r2,zero,377c <___svfprintf_internal_r+0x1690>
    2be0:	d8002a15 	stw	zero,168(sp)
    2be4:	d8002b15 	stw	zero,172(sp)
    2be8:	dc001e04 	addi	r16,sp,120
    2bec:	003ef706 	br	27cc <__alt_mem_Onchip_SRAM+0xf80027cc>
    2bf0:	8025883a 	mov	r18,r16
    2bf4:	dc002903 	ldbu	r16,164(sp)
    2bf8:	e011883a 	mov	r8,fp
    2bfc:	84003fcc 	andi	r16,r16,255
    2c00:	8005c81e 	bne	r16,zero,4324 <___svfprintf_internal_r+0x2238>
    2c04:	010000b4 	movhi	r4,2
    2c08:	21209f04 	addi	r4,r4,-32132
    2c0c:	d9003a15 	stw	r4,232(sp)
    2c10:	9080080c 	andi	r2,r18,32
    2c14:	10007226 	beq	r2,zero,2de0 <___svfprintf_internal_r+0xcf4>
    2c18:	d9402e17 	ldw	r5,184(sp)
    2c1c:	2d000017 	ldw	r20,0(r5)
    2c20:	2d800117 	ldw	r22,4(r5)
    2c24:	29400204 	addi	r5,r5,8
    2c28:	d9402e15 	stw	r5,184(sp)
    2c2c:	9080004c 	andi	r2,r18,1
    2c30:	1001aa26 	beq	r2,zero,32dc <___svfprintf_internal_r+0x11f0>
    2c34:	a584b03a 	or	r2,r20,r22
    2c38:	10032526 	beq	r2,zero,38d0 <___svfprintf_internal_r+0x17e4>
    2c3c:	d8c02a17 	ldw	r3,168(sp)
    2c40:	00800c04 	movi	r2,48
    2c44:	d8802705 	stb	r2,156(sp)
    2c48:	dc402745 	stb	r17,157(sp)
    2c4c:	d8002785 	stb	zero,158(sp)
    2c50:	90800094 	ori	r2,r18,2
    2c54:	1804a316 	blt	r3,zero,3ee4 <___svfprintf_internal_r+0x1df8>
    2c58:	00bfdfc4 	movi	r2,-129
    2c5c:	90a4703a 	and	r18,r18,r2
    2c60:	94800094 	ori	r18,r18,2
    2c64:	0039883a 	mov	fp,zero
    2c68:	d9003a17 	ldw	r4,232(sp)
    2c6c:	dc001e04 	addi	r16,sp,120
    2c70:	a08003cc 	andi	r2,r20,15
    2c74:	b006973a 	slli	r3,r22,28
    2c78:	2085883a 	add	r2,r4,r2
    2c7c:	a028d13a 	srli	r20,r20,4
    2c80:	10800003 	ldbu	r2,0(r2)
    2c84:	b02cd13a 	srli	r22,r22,4
    2c88:	843fffc4 	addi	r16,r16,-1
    2c8c:	1d28b03a 	or	r20,r3,r20
    2c90:	80800005 	stb	r2,0(r16)
    2c94:	a584b03a 	or	r2,r20,r22
    2c98:	103ff51e 	bne	r2,zero,2c70 <__alt_mem_Onchip_SRAM+0xf8002c70>
    2c9c:	d8c02817 	ldw	r3,160(sp)
    2ca0:	1c07c83a 	sub	r3,r3,r16
    2ca4:	d8c02b15 	stw	r3,172(sp)
    2ca8:	003ec806 	br	27cc <__alt_mem_Onchip_SRAM+0xf80027cc>
    2cac:	d8c02e17 	ldw	r3,184(sp)
    2cb0:	d9002e17 	ldw	r4,184(sp)
    2cb4:	8025883a 	mov	r18,r16
    2cb8:	18800017 	ldw	r2,0(r3)
    2cbc:	21000104 	addi	r4,r4,4
    2cc0:	00c00044 	movi	r3,1
    2cc4:	e011883a 	mov	r8,fp
    2cc8:	d8c02915 	stw	r3,164(sp)
    2ccc:	d8002785 	stb	zero,158(sp)
    2cd0:	d8801405 	stb	r2,80(sp)
    2cd4:	d9002e15 	stw	r4,184(sp)
    2cd8:	d8c02b15 	stw	r3,172(sp)
    2cdc:	d8002a15 	stw	zero,168(sp)
    2ce0:	d8003215 	stw	zero,200(sp)
    2ce4:	dc001404 	addi	r16,sp,80
    2ce8:	0039883a 	mov	fp,zero
    2cec:	003ec406 	br	2800 <__alt_mem_Onchip_SRAM+0xf8002800>
    2cf0:	8025883a 	mov	r18,r16
    2cf4:	dc002903 	ldbu	r16,164(sp)
    2cf8:	e011883a 	mov	r8,fp
    2cfc:	84003fcc 	andi	r16,r16,255
    2d00:	803e8726 	beq	r16,zero,2720 <__alt_mem_Onchip_SRAM+0xf8002720>
    2d04:	d8c02b03 	ldbu	r3,172(sp)
    2d08:	d8c02785 	stb	r3,158(sp)
    2d0c:	003e8406 	br	2720 <__alt_mem_Onchip_SRAM+0xf8002720>
    2d10:	00c00044 	movi	r3,1
    2d14:	d8c02905 	stb	r3,164(sp)
    2d18:	00c00ac4 	movi	r3,43
    2d1c:	d8c02b05 	stb	r3,172(sp)
    2d20:	bc400007 	ldb	r17,0(r23)
    2d24:	003d4606 	br	2240 <__alt_mem_Onchip_SRAM+0xf8002240>
    2d28:	84000814 	ori	r16,r16,32
    2d2c:	bc400007 	ldb	r17,0(r23)
    2d30:	003d4306 	br	2240 <__alt_mem_Onchip_SRAM+0xf8002240>
    2d34:	d8802e17 	ldw	r2,184(sp)
    2d38:	8025883a 	mov	r18,r16
    2d3c:	d8002785 	stb	zero,158(sp)
    2d40:	14000017 	ldw	r16,0(r2)
    2d44:	e011883a 	mov	r8,fp
    2d48:	15000104 	addi	r20,r2,4
    2d4c:	80042126 	beq	r16,zero,3dd4 <___svfprintf_internal_r+0x1ce8>
    2d50:	d8c02a17 	ldw	r3,168(sp)
    2d54:	1803ee16 	blt	r3,zero,3d10 <___svfprintf_internal_r+0x1c24>
    2d58:	180d883a 	mov	r6,r3
    2d5c:	000b883a 	mov	r5,zero
    2d60:	8009883a 	mov	r4,r16
    2d64:	df003e15 	stw	fp,248(sp)
    2d68:	00090b80 	call	90b8 <memchr>
    2d6c:	da003e17 	ldw	r8,248(sp)
    2d70:	10046a26 	beq	r2,zero,3f1c <___svfprintf_internal_r+0x1e30>
    2d74:	1405c83a 	sub	r2,r2,r16
    2d78:	d8802b15 	stw	r2,172(sp)
    2d7c:	1003ea16 	blt	r2,zero,3d28 <___svfprintf_internal_r+0x1c3c>
    2d80:	df002783 	ldbu	fp,158(sp)
    2d84:	d8802915 	stw	r2,164(sp)
    2d88:	dd002e15 	stw	r20,184(sp)
    2d8c:	d8002a15 	stw	zero,168(sp)
    2d90:	d8003215 	stw	zero,200(sp)
    2d94:	003e9306 	br	27e4 <__alt_mem_Onchip_SRAM+0xf80027e4>
    2d98:	8025883a 	mov	r18,r16
    2d9c:	dc002903 	ldbu	r16,164(sp)
    2da0:	e011883a 	mov	r8,fp
    2da4:	84003fcc 	andi	r16,r16,255
    2da8:	803f7c26 	beq	r16,zero,2b9c <__alt_mem_Onchip_SRAM+0xf8002b9c>
    2dac:	d8c02b03 	ldbu	r3,172(sp)
    2db0:	d8c02785 	stb	r3,158(sp)
    2db4:	003f7906 	br	2b9c <__alt_mem_Onchip_SRAM+0xf8002b9c>
    2db8:	8025883a 	mov	r18,r16
    2dbc:	dc002903 	ldbu	r16,164(sp)
    2dc0:	e011883a 	mov	r8,fp
    2dc4:	84003fcc 	andi	r16,r16,255
    2dc8:	8005741e 	bne	r16,zero,439c <___svfprintf_internal_r+0x22b0>
    2dcc:	010000b4 	movhi	r4,2
    2dd0:	2120a404 	addi	r4,r4,-32112
    2dd4:	d9003a15 	stw	r4,232(sp)
    2dd8:	9080080c 	andi	r2,r18,32
    2ddc:	103f8e1e 	bne	r2,zero,2c18 <__alt_mem_Onchip_SRAM+0xf8002c18>
    2de0:	9080040c 	andi	r2,r18,16
    2de4:	1002a726 	beq	r2,zero,3884 <___svfprintf_internal_r+0x1798>
    2de8:	d8802e17 	ldw	r2,184(sp)
    2dec:	002d883a 	mov	r22,zero
    2df0:	15000017 	ldw	r20,0(r2)
    2df4:	10800104 	addi	r2,r2,4
    2df8:	d8802e15 	stw	r2,184(sp)
    2dfc:	003f8b06 	br	2c2c <__alt_mem_Onchip_SRAM+0xf8002c2c>
    2e00:	84000054 	ori	r16,r16,1
    2e04:	bc400007 	ldb	r17,0(r23)
    2e08:	003d0d06 	br	2240 <__alt_mem_Onchip_SRAM+0xf8002240>
    2e0c:	d8802b07 	ldb	r2,172(sp)
    2e10:	1002a41e 	bne	r2,zero,38a4 <___svfprintf_internal_r+0x17b8>
    2e14:	00c00044 	movi	r3,1
    2e18:	d8c02905 	stb	r3,164(sp)
    2e1c:	00c00804 	movi	r3,32
    2e20:	d8c02b05 	stb	r3,172(sp)
    2e24:	bc400007 	ldb	r17,0(r23)
    2e28:	003d0506 	br	2240 <__alt_mem_Onchip_SRAM+0xf8002240>
    2e2c:	8025883a 	mov	r18,r16
    2e30:	dc002903 	ldbu	r16,164(sp)
    2e34:	e011883a 	mov	r8,fp
    2e38:	84003fcc 	andi	r16,r16,255
    2e3c:	803e0626 	beq	r16,zero,2658 <__alt_mem_Onchip_SRAM+0xf8002658>
    2e40:	d8c02b03 	ldbu	r3,172(sp)
    2e44:	d8c02785 	stb	r3,158(sp)
    2e48:	003e0306 	br	2658 <__alt_mem_Onchip_SRAM+0xf8002658>
    2e4c:	bc400007 	ldb	r17,0(r23)
    2e50:	00801b04 	movi	r2,108
    2e54:	88830a26 	beq	r17,r2,3a80 <___svfprintf_internal_r+0x1994>
    2e58:	84000414 	ori	r16,r16,16
    2e5c:	003cf806 	br	2240 <__alt_mem_Onchip_SRAM+0xf8002240>
    2e60:	8025883a 	mov	r18,r16
    2e64:	dc002903 	ldbu	r16,164(sp)
    2e68:	e011883a 	mov	r8,fp
    2e6c:	84003fcc 	andi	r16,r16,255
    2e70:	8005471e 	bne	r16,zero,4390 <___svfprintf_internal_r+0x22a4>
    2e74:	9080080c 	andi	r2,r18,32
    2e78:	10028c26 	beq	r2,zero,38ac <___svfprintf_internal_r+0x17c0>
    2e7c:	d9002e17 	ldw	r4,184(sp)
    2e80:	d9402f17 	ldw	r5,188(sp)
    2e84:	20800017 	ldw	r2,0(r4)
    2e88:	2807d7fa 	srai	r3,r5,31
    2e8c:	21000104 	addi	r4,r4,4
    2e90:	d9002e15 	stw	r4,184(sp)
    2e94:	11400015 	stw	r5,0(r2)
    2e98:	10c00115 	stw	r3,4(r2)
    2e9c:	003cbe06 	br	2198 <__alt_mem_Onchip_SRAM+0xf8002198>
    2ea0:	84001014 	ori	r16,r16,64
    2ea4:	bc400007 	ldb	r17,0(r23)
    2ea8:	003ce506 	br	2240 <__alt_mem_Onchip_SRAM+0xf8002240>
    2eac:	010000b4 	movhi	r4,2
    2eb0:	2120a404 	addi	r4,r4,-32112
    2eb4:	0039883a 	mov	fp,zero
    2eb8:	d9003a15 	stw	r4,232(sp)
    2ebc:	04401e04 	movi	r17,120
    2ec0:	003f6906 	br	2c68 <__alt_mem_Onchip_SRAM+0xf8002c68>
    2ec4:	8025883a 	mov	r18,r16
    2ec8:	dc002903 	ldbu	r16,164(sp)
    2ecc:	e011883a 	mov	r8,fp
    2ed0:	84003fcc 	andi	r16,r16,255
    2ed4:	8005261e 	bne	r16,zero,4370 <___svfprintf_internal_r+0x2284>
    2ed8:	883d6526 	beq	r17,zero,2470 <__alt_mem_Onchip_SRAM+0xf8002470>
    2edc:	00c00044 	movi	r3,1
    2ee0:	d8c02915 	stw	r3,164(sp)
    2ee4:	dc401405 	stb	r17,80(sp)
    2ee8:	d8002785 	stb	zero,158(sp)
    2eec:	003f7a06 	br	2cd8 <__alt_mem_Onchip_SRAM+0xf8002cd8>
    2ef0:	010000b4 	movhi	r4,2
    2ef4:	2120a404 	addi	r4,r4,-32112
    2ef8:	d9003a15 	stw	r4,232(sp)
    2efc:	d8c02e15 	stw	r3,184(sp)
    2f00:	1025883a 	mov	r18,r2
    2f04:	04401e04 	movi	r17,120
    2f08:	a584b03a 	or	r2,r20,r22
    2f0c:	1000fa1e 	bne	r2,zero,32f8 <___svfprintf_internal_r+0x120c>
    2f10:	0039883a 	mov	fp,zero
    2f14:	00800084 	movi	r2,2
    2f18:	10803fcc 	andi	r2,r2,255
    2f1c:	00c00044 	movi	r3,1
    2f20:	10c21626 	beq	r2,r3,377c <___svfprintf_internal_r+0x1690>
    2f24:	00c00084 	movi	r3,2
    2f28:	10fe0e1e 	bne	r2,r3,2764 <__alt_mem_Onchip_SRAM+0xf8002764>
    2f2c:	003d4606 	br	2448 <__alt_mem_Onchip_SRAM+0xf8002448>
    2f30:	d8c02017 	ldw	r3,128(sp)
    2f34:	003e7306 	br	2904 <__alt_mem_Onchip_SRAM+0xf8002904>
    2f38:	00801944 	movi	r2,101
    2f3c:	14407c0e 	bge	r2,r17,3130 <___svfprintf_internal_r+0x1044>
    2f40:	d9003617 	ldw	r4,216(sp)
    2f44:	d9403717 	ldw	r5,220(sp)
    2f48:	000d883a 	mov	r6,zero
    2f4c:	000f883a 	mov	r7,zero
    2f50:	d8c03d15 	stw	r3,244(sp)
    2f54:	da003e15 	stw	r8,248(sp)
    2f58:	00107d40 	call	107d4 <__eqdf2>
    2f5c:	d8c03d17 	ldw	r3,244(sp)
    2f60:	da003e17 	ldw	r8,248(sp)
    2f64:	1000f51e 	bne	r2,zero,333c <___svfprintf_internal_r+0x1250>
    2f68:	d8801f17 	ldw	r2,124(sp)
    2f6c:	010000b4 	movhi	r4,2
    2f70:	2120ab04 	addi	r4,r4,-32084
    2f74:	18c00044 	addi	r3,r3,1
    2f78:	10800044 	addi	r2,r2,1
    2f7c:	41000015 	stw	r4,0(r8)
    2f80:	01000044 	movi	r4,1
    2f84:	41000115 	stw	r4,4(r8)
    2f88:	d8c02015 	stw	r3,128(sp)
    2f8c:	d8801f15 	stw	r2,124(sp)
    2f90:	010001c4 	movi	r4,7
    2f94:	20826616 	blt	r4,r2,3930 <___svfprintf_internal_r+0x1844>
    2f98:	42000204 	addi	r8,r8,8
    2f9c:	d8802617 	ldw	r2,152(sp)
    2fa0:	d9403317 	ldw	r5,204(sp)
    2fa4:	11400216 	blt	r2,r5,2fb0 <___svfprintf_internal_r+0xec4>
    2fa8:	9080004c 	andi	r2,r18,1
    2fac:	103eb326 	beq	r2,zero,2a7c <__alt_mem_Onchip_SRAM+0xf8002a7c>
    2fb0:	d8803817 	ldw	r2,224(sp)
    2fb4:	d9003417 	ldw	r4,208(sp)
    2fb8:	d9403817 	ldw	r5,224(sp)
    2fbc:	1887883a 	add	r3,r3,r2
    2fc0:	d8801f17 	ldw	r2,124(sp)
    2fc4:	41000015 	stw	r4,0(r8)
    2fc8:	41400115 	stw	r5,4(r8)
    2fcc:	10800044 	addi	r2,r2,1
    2fd0:	d8c02015 	stw	r3,128(sp)
    2fd4:	d8801f15 	stw	r2,124(sp)
    2fd8:	010001c4 	movi	r4,7
    2fdc:	2082af16 	blt	r4,r2,3a9c <___svfprintf_internal_r+0x19b0>
    2fe0:	42000204 	addi	r8,r8,8
    2fe4:	d8803317 	ldw	r2,204(sp)
    2fe8:	143fffc4 	addi	r16,r2,-1
    2fec:	043ea30e 	bge	zero,r16,2a7c <__alt_mem_Onchip_SRAM+0xf8002a7c>
    2ff0:	04400404 	movi	r17,16
    2ff4:	d8801f17 	ldw	r2,124(sp)
    2ff8:	8c00860e 	bge	r17,r16,3214 <___svfprintf_internal_r+0x1128>
    2ffc:	014000b4 	movhi	r5,2
    3000:	2960ab84 	addi	r5,r5,-32082
    3004:	d9402c15 	stw	r5,176(sp)
    3008:	058001c4 	movi	r22,7
    300c:	dd002d17 	ldw	r20,180(sp)
    3010:	00000306 	br	3020 <___svfprintf_internal_r+0xf34>
    3014:	42000204 	addi	r8,r8,8
    3018:	843ffc04 	addi	r16,r16,-16
    301c:	8c00800e 	bge	r17,r16,3220 <___svfprintf_internal_r+0x1134>
    3020:	18c00404 	addi	r3,r3,16
    3024:	10800044 	addi	r2,r2,1
    3028:	45400015 	stw	r21,0(r8)
    302c:	44400115 	stw	r17,4(r8)
    3030:	d8c02015 	stw	r3,128(sp)
    3034:	d8801f15 	stw	r2,124(sp)
    3038:	b0bff60e 	bge	r22,r2,3014 <__alt_mem_Onchip_SRAM+0xf8003014>
    303c:	d9801e04 	addi	r6,sp,120
    3040:	a00b883a 	mov	r5,r20
    3044:	9809883a 	mov	r4,r19
    3048:	000a7500 	call	a750 <__ssprint_r>
    304c:	103d0e1e 	bne	r2,zero,2488 <__alt_mem_Onchip_SRAM+0xf8002488>
    3050:	d8c02017 	ldw	r3,128(sp)
    3054:	d8801f17 	ldw	r2,124(sp)
    3058:	da000404 	addi	r8,sp,16
    305c:	003fee06 	br	3018 <__alt_mem_Onchip_SRAM+0xf8003018>
    3060:	d9403117 	ldw	r5,196(sp)
    3064:	d8802917 	ldw	r2,164(sp)
    3068:	28adc83a 	sub	r22,r5,r2
    306c:	05be430e 	bge	zero,r22,297c <__alt_mem_Onchip_SRAM+0xf800297c>
    3070:	07000404 	movi	fp,16
    3074:	d8801f17 	ldw	r2,124(sp)
    3078:	e583a20e 	bge	fp,r22,3f04 <___svfprintf_internal_r+0x1e18>
    307c:	014000b4 	movhi	r5,2
    3080:	2960ab84 	addi	r5,r5,-32082
    3084:	dc403015 	stw	r17,192(sp)
    3088:	d9402c15 	stw	r5,176(sp)
    308c:	b023883a 	mov	r17,r22
    3090:	050001c4 	movi	r20,7
    3094:	902d883a 	mov	r22,r18
    3098:	8025883a 	mov	r18,r16
    309c:	dc002d17 	ldw	r16,180(sp)
    30a0:	00000306 	br	30b0 <___svfprintf_internal_r+0xfc4>
    30a4:	8c7ffc04 	addi	r17,r17,-16
    30a8:	42000204 	addi	r8,r8,8
    30ac:	e440110e 	bge	fp,r17,30f4 <___svfprintf_internal_r+0x1008>
    30b0:	18c00404 	addi	r3,r3,16
    30b4:	10800044 	addi	r2,r2,1
    30b8:	45400015 	stw	r21,0(r8)
    30bc:	47000115 	stw	fp,4(r8)
    30c0:	d8c02015 	stw	r3,128(sp)
    30c4:	d8801f15 	stw	r2,124(sp)
    30c8:	a0bff60e 	bge	r20,r2,30a4 <__alt_mem_Onchip_SRAM+0xf80030a4>
    30cc:	d9801e04 	addi	r6,sp,120
    30d0:	800b883a 	mov	r5,r16
    30d4:	9809883a 	mov	r4,r19
    30d8:	000a7500 	call	a750 <__ssprint_r>
    30dc:	103cea1e 	bne	r2,zero,2488 <__alt_mem_Onchip_SRAM+0xf8002488>
    30e0:	8c7ffc04 	addi	r17,r17,-16
    30e4:	d8c02017 	ldw	r3,128(sp)
    30e8:	d8801f17 	ldw	r2,124(sp)
    30ec:	da000404 	addi	r8,sp,16
    30f0:	e47fef16 	blt	fp,r17,30b0 <__alt_mem_Onchip_SRAM+0xf80030b0>
    30f4:	9021883a 	mov	r16,r18
    30f8:	b025883a 	mov	r18,r22
    30fc:	882d883a 	mov	r22,r17
    3100:	dc403017 	ldw	r17,192(sp)
    3104:	d9002c17 	ldw	r4,176(sp)
    3108:	1d87883a 	add	r3,r3,r22
    310c:	10800044 	addi	r2,r2,1
    3110:	41000015 	stw	r4,0(r8)
    3114:	45800115 	stw	r22,4(r8)
    3118:	d8c02015 	stw	r3,128(sp)
    311c:	d8801f15 	stw	r2,124(sp)
    3120:	010001c4 	movi	r4,7
    3124:	20819a16 	blt	r4,r2,3790 <___svfprintf_internal_r+0x16a4>
    3128:	42000204 	addi	r8,r8,8
    312c:	003e1306 	br	297c <__alt_mem_Onchip_SRAM+0xf800297c>
    3130:	d9403317 	ldw	r5,204(sp)
    3134:	00800044 	movi	r2,1
    3138:	18c00044 	addi	r3,r3,1
    313c:	1141710e 	bge	r2,r5,3704 <___svfprintf_internal_r+0x1618>
    3140:	dc401f17 	ldw	r17,124(sp)
    3144:	00800044 	movi	r2,1
    3148:	40800115 	stw	r2,4(r8)
    314c:	8c400044 	addi	r17,r17,1
    3150:	44000015 	stw	r16,0(r8)
    3154:	d8c02015 	stw	r3,128(sp)
    3158:	dc401f15 	stw	r17,124(sp)
    315c:	008001c4 	movi	r2,7
    3160:	14417416 	blt	r2,r17,3734 <___svfprintf_internal_r+0x1648>
    3164:	42000204 	addi	r8,r8,8
    3168:	d8803817 	ldw	r2,224(sp)
    316c:	d9003417 	ldw	r4,208(sp)
    3170:	8c400044 	addi	r17,r17,1
    3174:	10c7883a 	add	r3,r2,r3
    3178:	40800115 	stw	r2,4(r8)
    317c:	41000015 	stw	r4,0(r8)
    3180:	d8c02015 	stw	r3,128(sp)
    3184:	dc401f15 	stw	r17,124(sp)
    3188:	008001c4 	movi	r2,7
    318c:	14417216 	blt	r2,r17,3758 <___svfprintf_internal_r+0x166c>
    3190:	45800204 	addi	r22,r8,8
    3194:	d9003617 	ldw	r4,216(sp)
    3198:	d9403717 	ldw	r5,220(sp)
    319c:	000d883a 	mov	r6,zero
    31a0:	000f883a 	mov	r7,zero
    31a4:	d8c03d15 	stw	r3,244(sp)
    31a8:	00107d40 	call	107d4 <__eqdf2>
    31ac:	d8c03d17 	ldw	r3,244(sp)
    31b0:	1000b326 	beq	r2,zero,3480 <___svfprintf_internal_r+0x1394>
    31b4:	d9403317 	ldw	r5,204(sp)
    31b8:	84000044 	addi	r16,r16,1
    31bc:	8c400044 	addi	r17,r17,1
    31c0:	28bfffc4 	addi	r2,r5,-1
    31c4:	1887883a 	add	r3,r3,r2
    31c8:	b0800115 	stw	r2,4(r22)
    31cc:	b4000015 	stw	r16,0(r22)
    31d0:	d8c02015 	stw	r3,128(sp)
    31d4:	dc401f15 	stw	r17,124(sp)
    31d8:	008001c4 	movi	r2,7
    31dc:	1440d216 	blt	r2,r17,3528 <___svfprintf_internal_r+0x143c>
    31e0:	b5800204 	addi	r22,r22,8
    31e4:	d9003b17 	ldw	r4,236(sp)
    31e8:	df0022c4 	addi	fp,sp,139
    31ec:	8c400044 	addi	r17,r17,1
    31f0:	20c7883a 	add	r3,r4,r3
    31f4:	b7000015 	stw	fp,0(r22)
    31f8:	b1000115 	stw	r4,4(r22)
    31fc:	d8c02015 	stw	r3,128(sp)
    3200:	dc401f15 	stw	r17,124(sp)
    3204:	008001c4 	movi	r2,7
    3208:	14400e16 	blt	r2,r17,3244 <___svfprintf_internal_r+0x1158>
    320c:	b2000204 	addi	r8,r22,8
    3210:	003e1a06 	br	2a7c <__alt_mem_Onchip_SRAM+0xf8002a7c>
    3214:	010000b4 	movhi	r4,2
    3218:	2120ab84 	addi	r4,r4,-32082
    321c:	d9002c15 	stw	r4,176(sp)
    3220:	d9002c17 	ldw	r4,176(sp)
    3224:	1c07883a 	add	r3,r3,r16
    3228:	44000115 	stw	r16,4(r8)
    322c:	41000015 	stw	r4,0(r8)
    3230:	10800044 	addi	r2,r2,1
    3234:	d8c02015 	stw	r3,128(sp)
    3238:	d8801f15 	stw	r2,124(sp)
    323c:	010001c4 	movi	r4,7
    3240:	20be0d0e 	bge	r4,r2,2a78 <__alt_mem_Onchip_SRAM+0xf8002a78>
    3244:	d9402d17 	ldw	r5,180(sp)
    3248:	d9801e04 	addi	r6,sp,120
    324c:	9809883a 	mov	r4,r19
    3250:	000a7500 	call	a750 <__ssprint_r>
    3254:	103c8c1e 	bne	r2,zero,2488 <__alt_mem_Onchip_SRAM+0xf8002488>
    3258:	d8c02017 	ldw	r3,128(sp)
    325c:	da000404 	addi	r8,sp,16
    3260:	003e0606 	br	2a7c <__alt_mem_Onchip_SRAM+0xf8002a7c>
    3264:	d9402d17 	ldw	r5,180(sp)
    3268:	d9801e04 	addi	r6,sp,120
    326c:	9809883a 	mov	r4,r19
    3270:	000a7500 	call	a750 <__ssprint_r>
    3274:	103e3d26 	beq	r2,zero,2b6c <__alt_mem_Onchip_SRAM+0xf8002b6c>
    3278:	003c8306 	br	2488 <__alt_mem_Onchip_SRAM+0xf8002488>
    327c:	d9402d17 	ldw	r5,180(sp)
    3280:	d9801e04 	addi	r6,sp,120
    3284:	9809883a 	mov	r4,r19
    3288:	000a7500 	call	a750 <__ssprint_r>
    328c:	103c7e1e 	bne	r2,zero,2488 <__alt_mem_Onchip_SRAM+0xf8002488>
    3290:	d8c02017 	ldw	r3,128(sp)
    3294:	da000404 	addi	r8,sp,16
    3298:	003deb06 	br	2a48 <__alt_mem_Onchip_SRAM+0xf8002a48>
    329c:	d9402d17 	ldw	r5,180(sp)
    32a0:	d9801e04 	addi	r6,sp,120
    32a4:	9809883a 	mov	r4,r19
    32a8:	000a7500 	call	a750 <__ssprint_r>
    32ac:	103c761e 	bne	r2,zero,2488 <__alt_mem_Onchip_SRAM+0xf8002488>
    32b0:	d8c02017 	ldw	r3,128(sp)
    32b4:	da000404 	addi	r8,sp,16
    32b8:	003d9f06 	br	2938 <__alt_mem_Onchip_SRAM+0xf8002938>
    32bc:	d9402d17 	ldw	r5,180(sp)
    32c0:	d9801e04 	addi	r6,sp,120
    32c4:	9809883a 	mov	r4,r19
    32c8:	000a7500 	call	a750 <__ssprint_r>
    32cc:	103c6e1e 	bne	r2,zero,2488 <__alt_mem_Onchip_SRAM+0xf8002488>
    32d0:	d8c02017 	ldw	r3,128(sp)
    32d4:	da000404 	addi	r8,sp,16
    32d8:	003da506 	br	2970 <__alt_mem_Onchip_SRAM+0xf8002970>
    32dc:	d9402a17 	ldw	r5,168(sp)
    32e0:	d8002785 	stb	zero,158(sp)
    32e4:	283f0816 	blt	r5,zero,2f08 <__alt_mem_Onchip_SRAM+0xf8002f08>
    32e8:	00ffdfc4 	movi	r3,-129
    32ec:	a584b03a 	or	r2,r20,r22
    32f0:	90e4703a 	and	r18,r18,r3
    32f4:	103c5126 	beq	r2,zero,243c <__alt_mem_Onchip_SRAM+0xf800243c>
    32f8:	0039883a 	mov	fp,zero
    32fc:	003e5a06 	br	2c68 <__alt_mem_Onchip_SRAM+0xf8002c68>
    3300:	9080040c 	andi	r2,r18,16
    3304:	10013d26 	beq	r2,zero,37fc <___svfprintf_internal_r+0x1710>
    3308:	d8c02e17 	ldw	r3,184(sp)
    330c:	d9002a17 	ldw	r4,168(sp)
    3310:	d8002785 	stb	zero,158(sp)
    3314:	18800104 	addi	r2,r3,4
    3318:	1d000017 	ldw	r20,0(r3)
    331c:	002d883a 	mov	r22,zero
    3320:	20013f16 	blt	r4,zero,3820 <___svfprintf_internal_r+0x1734>
    3324:	00ffdfc4 	movi	r3,-129
    3328:	d8802e15 	stw	r2,184(sp)
    332c:	90e4703a 	and	r18,r18,r3
    3330:	a03d0926 	beq	r20,zero,2758 <__alt_mem_Onchip_SRAM+0xf8002758>
    3334:	0039883a 	mov	fp,zero
    3338:	003d0c06 	br	276c <__alt_mem_Onchip_SRAM+0xf800276c>
    333c:	dc402617 	ldw	r17,152(sp)
    3340:	0441830e 	bge	zero,r17,3950 <___svfprintf_internal_r+0x1864>
    3344:	dc403217 	ldw	r17,200(sp)
    3348:	d8803317 	ldw	r2,204(sp)
    334c:	1440010e 	bge	r2,r17,3354 <___svfprintf_internal_r+0x1268>
    3350:	1023883a 	mov	r17,r2
    3354:	04400a0e 	bge	zero,r17,3380 <___svfprintf_internal_r+0x1294>
    3358:	d8801f17 	ldw	r2,124(sp)
    335c:	1c47883a 	add	r3,r3,r17
    3360:	44000015 	stw	r16,0(r8)
    3364:	10800044 	addi	r2,r2,1
    3368:	44400115 	stw	r17,4(r8)
    336c:	d8c02015 	stw	r3,128(sp)
    3370:	d8801f15 	stw	r2,124(sp)
    3374:	010001c4 	movi	r4,7
    3378:	20827516 	blt	r4,r2,3d50 <___svfprintf_internal_r+0x1c64>
    337c:	42000204 	addi	r8,r8,8
    3380:	88027b16 	blt	r17,zero,3d70 <___svfprintf_internal_r+0x1c84>
    3384:	d9003217 	ldw	r4,200(sp)
    3388:	2463c83a 	sub	r17,r4,r17
    338c:	0440990e 	bge	zero,r17,35f4 <___svfprintf_internal_r+0x1508>
    3390:	05800404 	movi	r22,16
    3394:	d8801f17 	ldw	r2,124(sp)
    3398:	b441530e 	bge	r22,r17,38e8 <___svfprintf_internal_r+0x17fc>
    339c:	010000b4 	movhi	r4,2
    33a0:	2120ab84 	addi	r4,r4,-32082
    33a4:	d9002c15 	stw	r4,176(sp)
    33a8:	070001c4 	movi	fp,7
    33ac:	dd002d17 	ldw	r20,180(sp)
    33b0:	00000306 	br	33c0 <___svfprintf_internal_r+0x12d4>
    33b4:	42000204 	addi	r8,r8,8
    33b8:	8c7ffc04 	addi	r17,r17,-16
    33bc:	b4414d0e 	bge	r22,r17,38f4 <___svfprintf_internal_r+0x1808>
    33c0:	18c00404 	addi	r3,r3,16
    33c4:	10800044 	addi	r2,r2,1
    33c8:	45400015 	stw	r21,0(r8)
    33cc:	45800115 	stw	r22,4(r8)
    33d0:	d8c02015 	stw	r3,128(sp)
    33d4:	d8801f15 	stw	r2,124(sp)
    33d8:	e0bff60e 	bge	fp,r2,33b4 <__alt_mem_Onchip_SRAM+0xf80033b4>
    33dc:	d9801e04 	addi	r6,sp,120
    33e0:	a00b883a 	mov	r5,r20
    33e4:	9809883a 	mov	r4,r19
    33e8:	000a7500 	call	a750 <__ssprint_r>
    33ec:	103c261e 	bne	r2,zero,2488 <__alt_mem_Onchip_SRAM+0xf8002488>
    33f0:	d8c02017 	ldw	r3,128(sp)
    33f4:	d8801f17 	ldw	r2,124(sp)
    33f8:	da000404 	addi	r8,sp,16
    33fc:	003fee06 	br	33b8 <__alt_mem_Onchip_SRAM+0xf80033b8>
    3400:	d9402d17 	ldw	r5,180(sp)
    3404:	d9801e04 	addi	r6,sp,120
    3408:	9809883a 	mov	r4,r19
    340c:	000a7500 	call	a750 <__ssprint_r>
    3410:	103c1d1e 	bne	r2,zero,2488 <__alt_mem_Onchip_SRAM+0xf8002488>
    3414:	d8c02017 	ldw	r3,128(sp)
    3418:	df002787 	ldb	fp,158(sp)
    341c:	da000404 	addi	r8,sp,16
    3420:	003d3806 	br	2904 <__alt_mem_Onchip_SRAM+0xf8002904>
    3424:	9080040c 	andi	r2,r18,16
    3428:	10005c26 	beq	r2,zero,359c <___svfprintf_internal_r+0x14b0>
    342c:	d8c02e17 	ldw	r3,184(sp)
    3430:	d9002a17 	ldw	r4,168(sp)
    3434:	d8002785 	stb	zero,158(sp)
    3438:	18800104 	addi	r2,r3,4
    343c:	1d000017 	ldw	r20,0(r3)
    3440:	002d883a 	mov	r22,zero
    3444:	20005e16 	blt	r4,zero,35c0 <___svfprintf_internal_r+0x14d4>
    3448:	00ffdfc4 	movi	r3,-129
    344c:	d8802e15 	stw	r2,184(sp)
    3450:	90e4703a 	and	r18,r18,r3
    3454:	0039883a 	mov	fp,zero
    3458:	a03ddf26 	beq	r20,zero,2bd8 <__alt_mem_Onchip_SRAM+0xf8002bd8>
    345c:	00800244 	movi	r2,9
    3460:	153c8e36 	bltu	r2,r20,269c <__alt_mem_Onchip_SRAM+0xf800269c>
    3464:	a5000c04 	addi	r20,r20,48
    3468:	dc001dc4 	addi	r16,sp,119
    346c:	dd001dc5 	stb	r20,119(sp)
    3470:	d8c02817 	ldw	r3,160(sp)
    3474:	1c07c83a 	sub	r3,r3,r16
    3478:	d8c02b15 	stw	r3,172(sp)
    347c:	003cd306 	br	27cc <__alt_mem_Onchip_SRAM+0xf80027cc>
    3480:	d8803317 	ldw	r2,204(sp)
    3484:	143fffc4 	addi	r16,r2,-1
    3488:	043f560e 	bge	zero,r16,31e4 <__alt_mem_Onchip_SRAM+0xf80031e4>
    348c:	07000404 	movi	fp,16
    3490:	e403530e 	bge	fp,r16,41e0 <___svfprintf_internal_r+0x20f4>
    3494:	014000b4 	movhi	r5,2
    3498:	2960ab84 	addi	r5,r5,-32082
    349c:	d9402c15 	stw	r5,176(sp)
    34a0:	01c001c4 	movi	r7,7
    34a4:	dd002d17 	ldw	r20,180(sp)
    34a8:	00000306 	br	34b8 <___svfprintf_internal_r+0x13cc>
    34ac:	843ffc04 	addi	r16,r16,-16
    34b0:	b5800204 	addi	r22,r22,8
    34b4:	e400130e 	bge	fp,r16,3504 <___svfprintf_internal_r+0x1418>
    34b8:	18c00404 	addi	r3,r3,16
    34bc:	8c400044 	addi	r17,r17,1
    34c0:	b5400015 	stw	r21,0(r22)
    34c4:	b7000115 	stw	fp,4(r22)
    34c8:	d8c02015 	stw	r3,128(sp)
    34cc:	dc401f15 	stw	r17,124(sp)
    34d0:	3c7ff60e 	bge	r7,r17,34ac <__alt_mem_Onchip_SRAM+0xf80034ac>
    34d4:	d9801e04 	addi	r6,sp,120
    34d8:	a00b883a 	mov	r5,r20
    34dc:	9809883a 	mov	r4,r19
    34e0:	d9c03d15 	stw	r7,244(sp)
    34e4:	000a7500 	call	a750 <__ssprint_r>
    34e8:	d9c03d17 	ldw	r7,244(sp)
    34ec:	103be61e 	bne	r2,zero,2488 <__alt_mem_Onchip_SRAM+0xf8002488>
    34f0:	843ffc04 	addi	r16,r16,-16
    34f4:	d8c02017 	ldw	r3,128(sp)
    34f8:	dc401f17 	ldw	r17,124(sp)
    34fc:	dd800404 	addi	r22,sp,16
    3500:	e43fed16 	blt	fp,r16,34b8 <__alt_mem_Onchip_SRAM+0xf80034b8>
    3504:	d8802c17 	ldw	r2,176(sp)
    3508:	1c07883a 	add	r3,r3,r16
    350c:	8c400044 	addi	r17,r17,1
    3510:	b0800015 	stw	r2,0(r22)
    3514:	b4000115 	stw	r16,4(r22)
    3518:	d8c02015 	stw	r3,128(sp)
    351c:	dc401f15 	stw	r17,124(sp)
    3520:	008001c4 	movi	r2,7
    3524:	147f2e0e 	bge	r2,r17,31e0 <__alt_mem_Onchip_SRAM+0xf80031e0>
    3528:	d9402d17 	ldw	r5,180(sp)
    352c:	d9801e04 	addi	r6,sp,120
    3530:	9809883a 	mov	r4,r19
    3534:	000a7500 	call	a750 <__ssprint_r>
    3538:	103bd31e 	bne	r2,zero,2488 <__alt_mem_Onchip_SRAM+0xf8002488>
    353c:	d8c02017 	ldw	r3,128(sp)
    3540:	dc401f17 	ldw	r17,124(sp)
    3544:	dd800404 	addi	r22,sp,16
    3548:	003f2606 	br	31e4 <__alt_mem_Onchip_SRAM+0xf80031e4>
    354c:	9080040c 	andi	r2,r18,16
    3550:	1000c326 	beq	r2,zero,3860 <___svfprintf_internal_r+0x1774>
    3554:	d9402e17 	ldw	r5,184(sp)
    3558:	2d000017 	ldw	r20,0(r5)
    355c:	29400104 	addi	r5,r5,4
    3560:	d9402e15 	stw	r5,184(sp)
    3564:	a02dd7fa 	srai	r22,r20,31
    3568:	b005883a 	mov	r2,r22
    356c:	103c430e 	bge	r2,zero,267c <__alt_mem_Onchip_SRAM+0xf800267c>
    3570:	d9402a17 	ldw	r5,168(sp)
    3574:	0529c83a 	sub	r20,zero,r20
    3578:	07000b44 	movi	fp,45
    357c:	a004c03a 	cmpne	r2,r20,zero
    3580:	05adc83a 	sub	r22,zero,r22
    3584:	df002785 	stb	fp,158(sp)
    3588:	b0adc83a 	sub	r22,r22,r2
    358c:	28022e16 	blt	r5,zero,3e48 <___svfprintf_internal_r+0x1d5c>
    3590:	00bfdfc4 	movi	r2,-129
    3594:	90a4703a 	and	r18,r18,r2
    3598:	003c3f06 	br	2698 <__alt_mem_Onchip_SRAM+0xf8002698>
    359c:	9080100c 	andi	r2,r18,64
    35a0:	d8002785 	stb	zero,158(sp)
    35a4:	10012526 	beq	r2,zero,3a3c <___svfprintf_internal_r+0x1950>
    35a8:	d9402e17 	ldw	r5,184(sp)
    35ac:	d8c02a17 	ldw	r3,168(sp)
    35b0:	002d883a 	mov	r22,zero
    35b4:	28800104 	addi	r2,r5,4
    35b8:	2d00000b 	ldhu	r20,0(r5)
    35bc:	183fa20e 	bge	r3,zero,3448 <__alt_mem_Onchip_SRAM+0xf8003448>
    35c0:	d8802e15 	stw	r2,184(sp)
    35c4:	0039883a 	mov	fp,zero
    35c8:	a584b03a 	or	r2,r20,r22
    35cc:	103c321e 	bne	r2,zero,2698 <__alt_mem_Onchip_SRAM+0xf8002698>
    35d0:	00800044 	movi	r2,1
    35d4:	003e5006 	br	2f18 <__alt_mem_Onchip_SRAM+0xf8002f18>
    35d8:	d9402d17 	ldw	r5,180(sp)
    35dc:	d9801e04 	addi	r6,sp,120
    35e0:	9809883a 	mov	r4,r19
    35e4:	000a7500 	call	a750 <__ssprint_r>
    35e8:	103ba71e 	bne	r2,zero,2488 <__alt_mem_Onchip_SRAM+0xf8002488>
    35ec:	d8c02017 	ldw	r3,128(sp)
    35f0:	da000404 	addi	r8,sp,16
    35f4:	d9003217 	ldw	r4,200(sp)
    35f8:	d8802617 	ldw	r2,152(sp)
    35fc:	d9403317 	ldw	r5,204(sp)
    3600:	8123883a 	add	r17,r16,r4
    3604:	11400216 	blt	r2,r5,3610 <___svfprintf_internal_r+0x1524>
    3608:	9100004c 	andi	r4,r18,1
    360c:	20000d26 	beq	r4,zero,3644 <___svfprintf_internal_r+0x1558>
    3610:	d9003817 	ldw	r4,224(sp)
    3614:	d9403417 	ldw	r5,208(sp)
    3618:	1907883a 	add	r3,r3,r4
    361c:	d9001f17 	ldw	r4,124(sp)
    3620:	41400015 	stw	r5,0(r8)
    3624:	d9403817 	ldw	r5,224(sp)
    3628:	21000044 	addi	r4,r4,1
    362c:	d8c02015 	stw	r3,128(sp)
    3630:	41400115 	stw	r5,4(r8)
    3634:	d9001f15 	stw	r4,124(sp)
    3638:	014001c4 	movi	r5,7
    363c:	2901dc16 	blt	r5,r4,3db0 <___svfprintf_internal_r+0x1cc4>
    3640:	42000204 	addi	r8,r8,8
    3644:	d9003317 	ldw	r4,204(sp)
    3648:	8121883a 	add	r16,r16,r4
    364c:	2085c83a 	sub	r2,r4,r2
    3650:	8461c83a 	sub	r16,r16,r17
    3654:	1400010e 	bge	r2,r16,365c <___svfprintf_internal_r+0x1570>
    3658:	1021883a 	mov	r16,r2
    365c:	04000a0e 	bge	zero,r16,3688 <___svfprintf_internal_r+0x159c>
    3660:	d9001f17 	ldw	r4,124(sp)
    3664:	1c07883a 	add	r3,r3,r16
    3668:	44400015 	stw	r17,0(r8)
    366c:	21000044 	addi	r4,r4,1
    3670:	44000115 	stw	r16,4(r8)
    3674:	d8c02015 	stw	r3,128(sp)
    3678:	d9001f15 	stw	r4,124(sp)
    367c:	014001c4 	movi	r5,7
    3680:	2901e616 	blt	r5,r4,3e1c <___svfprintf_internal_r+0x1d30>
    3684:	42000204 	addi	r8,r8,8
    3688:	8001f616 	blt	r16,zero,3e64 <___svfprintf_internal_r+0x1d78>
    368c:	1421c83a 	sub	r16,r2,r16
    3690:	043cfa0e 	bge	zero,r16,2a7c <__alt_mem_Onchip_SRAM+0xf8002a7c>
    3694:	04400404 	movi	r17,16
    3698:	d8801f17 	ldw	r2,124(sp)
    369c:	8c3edd0e 	bge	r17,r16,3214 <__alt_mem_Onchip_SRAM+0xf8003214>
    36a0:	014000b4 	movhi	r5,2
    36a4:	2960ab84 	addi	r5,r5,-32082
    36a8:	d9402c15 	stw	r5,176(sp)
    36ac:	058001c4 	movi	r22,7
    36b0:	dd002d17 	ldw	r20,180(sp)
    36b4:	00000306 	br	36c4 <___svfprintf_internal_r+0x15d8>
    36b8:	42000204 	addi	r8,r8,8
    36bc:	843ffc04 	addi	r16,r16,-16
    36c0:	8c3ed70e 	bge	r17,r16,3220 <__alt_mem_Onchip_SRAM+0xf8003220>
    36c4:	18c00404 	addi	r3,r3,16
    36c8:	10800044 	addi	r2,r2,1
    36cc:	45400015 	stw	r21,0(r8)
    36d0:	44400115 	stw	r17,4(r8)
    36d4:	d8c02015 	stw	r3,128(sp)
    36d8:	d8801f15 	stw	r2,124(sp)
    36dc:	b0bff60e 	bge	r22,r2,36b8 <__alt_mem_Onchip_SRAM+0xf80036b8>
    36e0:	d9801e04 	addi	r6,sp,120
    36e4:	a00b883a 	mov	r5,r20
    36e8:	9809883a 	mov	r4,r19
    36ec:	000a7500 	call	a750 <__ssprint_r>
    36f0:	103b651e 	bne	r2,zero,2488 <__alt_mem_Onchip_SRAM+0xf8002488>
    36f4:	d8c02017 	ldw	r3,128(sp)
    36f8:	d8801f17 	ldw	r2,124(sp)
    36fc:	da000404 	addi	r8,sp,16
    3700:	003fee06 	br	36bc <__alt_mem_Onchip_SRAM+0xf80036bc>
    3704:	9088703a 	and	r4,r18,r2
    3708:	203e8d1e 	bne	r4,zero,3140 <__alt_mem_Onchip_SRAM+0xf8003140>
    370c:	dc401f17 	ldw	r17,124(sp)
    3710:	40800115 	stw	r2,4(r8)
    3714:	44000015 	stw	r16,0(r8)
    3718:	8c400044 	addi	r17,r17,1
    371c:	d8c02015 	stw	r3,128(sp)
    3720:	dc401f15 	stw	r17,124(sp)
    3724:	008001c4 	movi	r2,7
    3728:	147f7f16 	blt	r2,r17,3528 <__alt_mem_Onchip_SRAM+0xf8003528>
    372c:	45800204 	addi	r22,r8,8
    3730:	003eac06 	br	31e4 <__alt_mem_Onchip_SRAM+0xf80031e4>
    3734:	d9402d17 	ldw	r5,180(sp)
    3738:	d9801e04 	addi	r6,sp,120
    373c:	9809883a 	mov	r4,r19
    3740:	000a7500 	call	a750 <__ssprint_r>
    3744:	103b501e 	bne	r2,zero,2488 <__alt_mem_Onchip_SRAM+0xf8002488>
    3748:	d8c02017 	ldw	r3,128(sp)
    374c:	dc401f17 	ldw	r17,124(sp)
    3750:	da000404 	addi	r8,sp,16
    3754:	003e8406 	br	3168 <__alt_mem_Onchip_SRAM+0xf8003168>
    3758:	d9402d17 	ldw	r5,180(sp)
    375c:	d9801e04 	addi	r6,sp,120
    3760:	9809883a 	mov	r4,r19
    3764:	000a7500 	call	a750 <__ssprint_r>
    3768:	103b471e 	bne	r2,zero,2488 <__alt_mem_Onchip_SRAM+0xf8002488>
    376c:	d8c02017 	ldw	r3,128(sp)
    3770:	dc401f17 	ldw	r17,124(sp)
    3774:	dd800404 	addi	r22,sp,16
    3778:	003e8606 	br	3194 <__alt_mem_Onchip_SRAM+0xf8003194>
    377c:	0029883a 	mov	r20,zero
    3780:	a5000c04 	addi	r20,r20,48
    3784:	dc001dc4 	addi	r16,sp,119
    3788:	dd001dc5 	stb	r20,119(sp)
    378c:	003f3806 	br	3470 <__alt_mem_Onchip_SRAM+0xf8003470>
    3790:	d9402d17 	ldw	r5,180(sp)
    3794:	d9801e04 	addi	r6,sp,120
    3798:	9809883a 	mov	r4,r19
    379c:	000a7500 	call	a750 <__ssprint_r>
    37a0:	103b391e 	bne	r2,zero,2488 <__alt_mem_Onchip_SRAM+0xf8002488>
    37a4:	d8c02017 	ldw	r3,128(sp)
    37a8:	da000404 	addi	r8,sp,16
    37ac:	003c7306 	br	297c <__alt_mem_Onchip_SRAM+0xf800297c>
    37b0:	d9003617 	ldw	r4,216(sp)
    37b4:	d9403717 	ldw	r5,220(sp)
    37b8:	da003e15 	stw	r8,248(sp)
    37bc:	000a4c40 	call	a4c4 <__fpclassifyd>
    37c0:	da003e17 	ldw	r8,248(sp)
    37c4:	1000bd1e 	bne	r2,zero,3abc <___svfprintf_internal_r+0x19d0>
    37c8:	008011c4 	movi	r2,71
    37cc:	14411e0e 	bge	r2,r17,3c48 <___svfprintf_internal_r+0x1b5c>
    37d0:	040000b4 	movhi	r16,2
    37d4:	84209e04 	addi	r16,r16,-32136
    37d8:	00c000c4 	movi	r3,3
    37dc:	00bfdfc4 	movi	r2,-129
    37e0:	d8c02915 	stw	r3,164(sp)
    37e4:	90a4703a 	and	r18,r18,r2
    37e8:	df002783 	ldbu	fp,158(sp)
    37ec:	d8c02b15 	stw	r3,172(sp)
    37f0:	d8002a15 	stw	zero,168(sp)
    37f4:	d8003215 	stw	zero,200(sp)
    37f8:	003bfa06 	br	27e4 <__alt_mem_Onchip_SRAM+0xf80027e4>
    37fc:	9080100c 	andi	r2,r18,64
    3800:	d8002785 	stb	zero,158(sp)
    3804:	10009426 	beq	r2,zero,3a58 <___svfprintf_internal_r+0x196c>
    3808:	d9402e17 	ldw	r5,184(sp)
    380c:	d8c02a17 	ldw	r3,168(sp)
    3810:	002d883a 	mov	r22,zero
    3814:	28800104 	addi	r2,r5,4
    3818:	2d00000b 	ldhu	r20,0(r5)
    381c:	183ec10e 	bge	r3,zero,3324 <__alt_mem_Onchip_SRAM+0xf8003324>
    3820:	a586b03a 	or	r3,r20,r22
    3824:	d8802e15 	stw	r2,184(sp)
    3828:	183ec21e 	bne	r3,zero,3334 <__alt_mem_Onchip_SRAM+0xf8003334>
    382c:	0039883a 	mov	fp,zero
    3830:	0005883a 	mov	r2,zero
    3834:	003db806 	br	2f18 <__alt_mem_Onchip_SRAM+0xf8002f18>
    3838:	d8c02e17 	ldw	r3,184(sp)
    383c:	d9002e17 	ldw	r4,184(sp)
    3840:	d9402e17 	ldw	r5,184(sp)
    3844:	18c00017 	ldw	r3,0(r3)
    3848:	21000117 	ldw	r4,4(r4)
    384c:	29400204 	addi	r5,r5,8
    3850:	d8c03615 	stw	r3,216(sp)
    3854:	d9003715 	stw	r4,220(sp)
    3858:	d9402e15 	stw	r5,184(sp)
    385c:	003b5a06 	br	25c8 <__alt_mem_Onchip_SRAM+0xf80025c8>
    3860:	9080100c 	andi	r2,r18,64
    3864:	10010726 	beq	r2,zero,3c84 <___svfprintf_internal_r+0x1b98>
    3868:	d8802e17 	ldw	r2,184(sp)
    386c:	1500000f 	ldh	r20,0(r2)
    3870:	10800104 	addi	r2,r2,4
    3874:	d8802e15 	stw	r2,184(sp)
    3878:	a02dd7fa 	srai	r22,r20,31
    387c:	b005883a 	mov	r2,r22
    3880:	003b7d06 	br	2678 <__alt_mem_Onchip_SRAM+0xf8002678>
    3884:	9080100c 	andi	r2,r18,64
    3888:	10010526 	beq	r2,zero,3ca0 <___svfprintf_internal_r+0x1bb4>
    388c:	d8c02e17 	ldw	r3,184(sp)
    3890:	002d883a 	mov	r22,zero
    3894:	1d00000b 	ldhu	r20,0(r3)
    3898:	18c00104 	addi	r3,r3,4
    389c:	d8c02e15 	stw	r3,184(sp)
    38a0:	003ce206 	br	2c2c <__alt_mem_Onchip_SRAM+0xf8002c2c>
    38a4:	bc400007 	ldb	r17,0(r23)
    38a8:	003a6506 	br	2240 <__alt_mem_Onchip_SRAM+0xf8002240>
    38ac:	9080040c 	andi	r2,r18,16
    38b0:	10010126 	beq	r2,zero,3cb8 <___svfprintf_internal_r+0x1bcc>
    38b4:	d8c02e17 	ldw	r3,184(sp)
    38b8:	d9002f17 	ldw	r4,188(sp)
    38bc:	18800017 	ldw	r2,0(r3)
    38c0:	18c00104 	addi	r3,r3,4
    38c4:	d8c02e15 	stw	r3,184(sp)
    38c8:	11000015 	stw	r4,0(r2)
    38cc:	003a3206 	br	2198 <__alt_mem_Onchip_SRAM+0xf8002198>
    38d0:	d9002a17 	ldw	r4,168(sp)
    38d4:	d8002785 	stb	zero,158(sp)
    38d8:	203d8d16 	blt	r4,zero,2f10 <__alt_mem_Onchip_SRAM+0xf8002f10>
    38dc:	00bfdfc4 	movi	r2,-129
    38e0:	90a4703a 	and	r18,r18,r2
    38e4:	003ad506 	br	243c <__alt_mem_Onchip_SRAM+0xf800243c>
    38e8:	014000b4 	movhi	r5,2
    38ec:	2960ab84 	addi	r5,r5,-32082
    38f0:	d9402c15 	stw	r5,176(sp)
    38f4:	d9402c17 	ldw	r5,176(sp)
    38f8:	1c47883a 	add	r3,r3,r17
    38fc:	10800044 	addi	r2,r2,1
    3900:	41400015 	stw	r5,0(r8)
    3904:	44400115 	stw	r17,4(r8)
    3908:	d8c02015 	stw	r3,128(sp)
    390c:	d8801f15 	stw	r2,124(sp)
    3910:	010001c4 	movi	r4,7
    3914:	20bf3016 	blt	r4,r2,35d8 <__alt_mem_Onchip_SRAM+0xf80035d8>
    3918:	42000204 	addi	r8,r8,8
    391c:	003f3506 	br	35f4 <__alt_mem_Onchip_SRAM+0xf80035f4>
    3920:	010000b4 	movhi	r4,2
    3924:	2120ab84 	addi	r4,r4,-32082
    3928:	d9002c15 	stw	r4,176(sp)
    392c:	003c3c06 	br	2a20 <__alt_mem_Onchip_SRAM+0xf8002a20>
    3930:	d9402d17 	ldw	r5,180(sp)
    3934:	d9801e04 	addi	r6,sp,120
    3938:	9809883a 	mov	r4,r19
    393c:	000a7500 	call	a750 <__ssprint_r>
    3940:	103ad11e 	bne	r2,zero,2488 <__alt_mem_Onchip_SRAM+0xf8002488>
    3944:	d8c02017 	ldw	r3,128(sp)
    3948:	da000404 	addi	r8,sp,16
    394c:	003d9306 	br	2f9c <__alt_mem_Onchip_SRAM+0xf8002f9c>
    3950:	d8801f17 	ldw	r2,124(sp)
    3954:	014000b4 	movhi	r5,2
    3958:	01000044 	movi	r4,1
    395c:	18c00044 	addi	r3,r3,1
    3960:	10800044 	addi	r2,r2,1
    3964:	2960ab04 	addi	r5,r5,-32084
    3968:	41000115 	stw	r4,4(r8)
    396c:	41400015 	stw	r5,0(r8)
    3970:	d8c02015 	stw	r3,128(sp)
    3974:	d8801f15 	stw	r2,124(sp)
    3978:	010001c4 	movi	r4,7
    397c:	2080b516 	blt	r4,r2,3c54 <___svfprintf_internal_r+0x1b68>
    3980:	42000204 	addi	r8,r8,8
    3984:	8800041e 	bne	r17,zero,3998 <___svfprintf_internal_r+0x18ac>
    3988:	d8803317 	ldw	r2,204(sp)
    398c:	1000021e 	bne	r2,zero,3998 <___svfprintf_internal_r+0x18ac>
    3990:	9080004c 	andi	r2,r18,1
    3994:	103c3926 	beq	r2,zero,2a7c <__alt_mem_Onchip_SRAM+0xf8002a7c>
    3998:	d9003817 	ldw	r4,224(sp)
    399c:	d8801f17 	ldw	r2,124(sp)
    39a0:	d9403417 	ldw	r5,208(sp)
    39a4:	20c7883a 	add	r3,r4,r3
    39a8:	10800044 	addi	r2,r2,1
    39ac:	41000115 	stw	r4,4(r8)
    39b0:	41400015 	stw	r5,0(r8)
    39b4:	d8c02015 	stw	r3,128(sp)
    39b8:	d8801f15 	stw	r2,124(sp)
    39bc:	010001c4 	movi	r4,7
    39c0:	20818016 	blt	r4,r2,3fc4 <___svfprintf_internal_r+0x1ed8>
    39c4:	42000204 	addi	r8,r8,8
    39c8:	0463c83a 	sub	r17,zero,r17
    39cc:	0440cb0e 	bge	zero,r17,3cfc <___svfprintf_internal_r+0x1c10>
    39d0:	05800404 	movi	r22,16
    39d4:	b440e80e 	bge	r22,r17,3d78 <___svfprintf_internal_r+0x1c8c>
    39d8:	014000b4 	movhi	r5,2
    39dc:	2960ab84 	addi	r5,r5,-32082
    39e0:	d9402c15 	stw	r5,176(sp)
    39e4:	070001c4 	movi	fp,7
    39e8:	dd002d17 	ldw	r20,180(sp)
    39ec:	00000306 	br	39fc <___svfprintf_internal_r+0x1910>
    39f0:	42000204 	addi	r8,r8,8
    39f4:	8c7ffc04 	addi	r17,r17,-16
    39f8:	b440e20e 	bge	r22,r17,3d84 <___svfprintf_internal_r+0x1c98>
    39fc:	18c00404 	addi	r3,r3,16
    3a00:	10800044 	addi	r2,r2,1
    3a04:	45400015 	stw	r21,0(r8)
    3a08:	45800115 	stw	r22,4(r8)
    3a0c:	d8c02015 	stw	r3,128(sp)
    3a10:	d8801f15 	stw	r2,124(sp)
    3a14:	e0bff60e 	bge	fp,r2,39f0 <__alt_mem_Onchip_SRAM+0xf80039f0>
    3a18:	d9801e04 	addi	r6,sp,120
    3a1c:	a00b883a 	mov	r5,r20
    3a20:	9809883a 	mov	r4,r19
    3a24:	000a7500 	call	a750 <__ssprint_r>
    3a28:	103a971e 	bne	r2,zero,2488 <__alt_mem_Onchip_SRAM+0xf8002488>
    3a2c:	d8c02017 	ldw	r3,128(sp)
    3a30:	d8801f17 	ldw	r2,124(sp)
    3a34:	da000404 	addi	r8,sp,16
    3a38:	003fee06 	br	39f4 <__alt_mem_Onchip_SRAM+0xf80039f4>
    3a3c:	d9002e17 	ldw	r4,184(sp)
    3a40:	d9402a17 	ldw	r5,168(sp)
    3a44:	002d883a 	mov	r22,zero
    3a48:	20800104 	addi	r2,r4,4
    3a4c:	25000017 	ldw	r20,0(r4)
    3a50:	283e7d0e 	bge	r5,zero,3448 <__alt_mem_Onchip_SRAM+0xf8003448>
    3a54:	003eda06 	br	35c0 <__alt_mem_Onchip_SRAM+0xf80035c0>
    3a58:	d9002e17 	ldw	r4,184(sp)
    3a5c:	d9402a17 	ldw	r5,168(sp)
    3a60:	002d883a 	mov	r22,zero
    3a64:	20800104 	addi	r2,r4,4
    3a68:	25000017 	ldw	r20,0(r4)
    3a6c:	283e2d0e 	bge	r5,zero,3324 <__alt_mem_Onchip_SRAM+0xf8003324>
    3a70:	003f6b06 	br	3820 <__alt_mem_Onchip_SRAM+0xf8003820>
    3a74:	d8c02e15 	stw	r3,184(sp)
    3a78:	0039883a 	mov	fp,zero
    3a7c:	003ed206 	br	35c8 <__alt_mem_Onchip_SRAM+0xf80035c8>
    3a80:	bc400043 	ldbu	r17,1(r23)
    3a84:	84000814 	ori	r16,r16,32
    3a88:	bdc00044 	addi	r23,r23,1
    3a8c:	8c403fcc 	andi	r17,r17,255
    3a90:	8c40201c 	xori	r17,r17,128
    3a94:	8c7fe004 	addi	r17,r17,-128
    3a98:	0039e906 	br	2240 <__alt_mem_Onchip_SRAM+0xf8002240>
    3a9c:	d9402d17 	ldw	r5,180(sp)
    3aa0:	d9801e04 	addi	r6,sp,120
    3aa4:	9809883a 	mov	r4,r19
    3aa8:	000a7500 	call	a750 <__ssprint_r>
    3aac:	103a761e 	bne	r2,zero,2488 <__alt_mem_Onchip_SRAM+0xf8002488>
    3ab0:	d8c02017 	ldw	r3,128(sp)
    3ab4:	da000404 	addi	r8,sp,16
    3ab8:	003d4a06 	br	2fe4 <__alt_mem_Onchip_SRAM+0xf8002fe4>
    3abc:	d9002a17 	ldw	r4,168(sp)
    3ac0:	05bff7c4 	movi	r22,-33
    3ac4:	00bfffc4 	movi	r2,-1
    3ac8:	8dac703a 	and	r22,r17,r22
    3acc:	20806a26 	beq	r4,r2,3c78 <___svfprintf_internal_r+0x1b8c>
    3ad0:	008011c4 	movi	r2,71
    3ad4:	b0813726 	beq	r22,r2,3fb4 <___svfprintf_internal_r+0x1ec8>
    3ad8:	d9003717 	ldw	r4,220(sp)
    3adc:	90c04014 	ori	r3,r18,256
    3ae0:	d8c02c15 	stw	r3,176(sp)
    3ae4:	20015d16 	blt	r4,zero,405c <___svfprintf_internal_r+0x1f70>
    3ae8:	dd003717 	ldw	r20,220(sp)
    3aec:	d8002905 	stb	zero,164(sp)
    3af0:	00801984 	movi	r2,102
    3af4:	88814026 	beq	r17,r2,3ff8 <___svfprintf_internal_r+0x1f0c>
    3af8:	00801184 	movi	r2,70
    3afc:	88817126 	beq	r17,r2,40c4 <___svfprintf_internal_r+0x1fd8>
    3b00:	00801144 	movi	r2,69
    3b04:	b0816226 	beq	r22,r2,4090 <___svfprintf_internal_r+0x1fa4>
    3b08:	d8c02a17 	ldw	r3,168(sp)
    3b0c:	d8802104 	addi	r2,sp,132
    3b10:	d8800315 	stw	r2,12(sp)
    3b14:	d9403617 	ldw	r5,216(sp)
    3b18:	d8802504 	addi	r2,sp,148
    3b1c:	d8800215 	stw	r2,8(sp)
    3b20:	d8802604 	addi	r2,sp,152
    3b24:	d8c00015 	stw	r3,0(sp)
    3b28:	d8800115 	stw	r2,4(sp)
    3b2c:	01c00084 	movi	r7,2
    3b30:	a00d883a 	mov	r6,r20
    3b34:	9809883a 	mov	r4,r19
    3b38:	d8c03d15 	stw	r3,244(sp)
    3b3c:	da003e15 	stw	r8,248(sp)
    3b40:	0006b280 	call	6b28 <_dtoa_r>
    3b44:	1021883a 	mov	r16,r2
    3b48:	008019c4 	movi	r2,103
    3b4c:	d8c03d17 	ldw	r3,244(sp)
    3b50:	da003e17 	ldw	r8,248(sp)
    3b54:	8880e726 	beq	r17,r2,3ef4 <___svfprintf_internal_r+0x1e08>
    3b58:	008011c4 	movi	r2,71
    3b5c:	8880d426 	beq	r17,r2,3eb0 <___svfprintf_internal_r+0x1dc4>
    3b60:	80f9883a 	add	fp,r16,r3
    3b64:	d9003617 	ldw	r4,216(sp)
    3b68:	000d883a 	mov	r6,zero
    3b6c:	000f883a 	mov	r7,zero
    3b70:	a00b883a 	mov	r5,r20
    3b74:	da003e15 	stw	r8,248(sp)
    3b78:	00107d40 	call	107d4 <__eqdf2>
    3b7c:	da003e17 	ldw	r8,248(sp)
    3b80:	1000e426 	beq	r2,zero,3f14 <___svfprintf_internal_r+0x1e28>
    3b84:	d8802117 	ldw	r2,132(sp)
    3b88:	1700062e 	bgeu	r2,fp,3ba4 <___svfprintf_internal_r+0x1ab8>
    3b8c:	01000c04 	movi	r4,48
    3b90:	10c00044 	addi	r3,r2,1
    3b94:	d8c02115 	stw	r3,132(sp)
    3b98:	11000005 	stb	r4,0(r2)
    3b9c:	d8802117 	ldw	r2,132(sp)
    3ba0:	173ffb36 	bltu	r2,fp,3b90 <__alt_mem_Onchip_SRAM+0xf8003b90>
    3ba4:	1405c83a 	sub	r2,r2,r16
    3ba8:	d8803315 	stw	r2,204(sp)
    3bac:	008011c4 	movi	r2,71
    3bb0:	b080c526 	beq	r22,r2,3ec8 <___svfprintf_internal_r+0x1ddc>
    3bb4:	00801944 	movi	r2,101
    3bb8:	1441d80e 	bge	r2,r17,431c <___svfprintf_internal_r+0x2230>
    3bbc:	d8c02617 	ldw	r3,152(sp)
    3bc0:	00801984 	movi	r2,102
    3bc4:	d8c03215 	stw	r3,200(sp)
    3bc8:	88813426 	beq	r17,r2,409c <___svfprintf_internal_r+0x1fb0>
    3bcc:	d8c03217 	ldw	r3,200(sp)
    3bd0:	d9003317 	ldw	r4,204(sp)
    3bd4:	19012516 	blt	r3,r4,406c <___svfprintf_internal_r+0x1f80>
    3bd8:	9480004c 	andi	r18,r18,1
    3bdc:	9001841e 	bne	r18,zero,41f0 <___svfprintf_internal_r+0x2104>
    3be0:	1805883a 	mov	r2,r3
    3be4:	1801cb16 	blt	r3,zero,4314 <___svfprintf_internal_r+0x2228>
    3be8:	d8c03217 	ldw	r3,200(sp)
    3bec:	044019c4 	movi	r17,103
    3bf0:	d8c02b15 	stw	r3,172(sp)
    3bf4:	df002907 	ldb	fp,164(sp)
    3bf8:	e000a61e 	bne	fp,zero,3e94 <___svfprintf_internal_r+0x1da8>
    3bfc:	df002783 	ldbu	fp,158(sp)
    3c00:	d8802915 	stw	r2,164(sp)
    3c04:	dc802c17 	ldw	r18,176(sp)
    3c08:	d8002a15 	stw	zero,168(sp)
    3c0c:	003af506 	br	27e4 <__alt_mem_Onchip_SRAM+0xf80027e4>
    3c10:	040000b4 	movhi	r16,2
    3c14:	84209b04 	addi	r16,r16,-32148
    3c18:	003a7e06 	br	2614 <__alt_mem_Onchip_SRAM+0xf8002614>
    3c1c:	d9003917 	ldw	r4,228(sp)
    3c20:	04001004 	movi	r16,64
    3c24:	800b883a 	mov	r5,r16
    3c28:	00015b80 	call	15b8 <_malloc_r>
    3c2c:	d9002d17 	ldw	r4,180(sp)
    3c30:	20800015 	stw	r2,0(r4)
    3c34:	20800415 	stw	r2,16(r4)
    3c38:	1001d026 	beq	r2,zero,437c <___svfprintf_internal_r+0x2290>
    3c3c:	d8802d17 	ldw	r2,180(sp)
    3c40:	14000515 	stw	r16,20(r2)
    3c44:	00394406 	br	2158 <__alt_mem_Onchip_SRAM+0xf8002158>
    3c48:	040000b4 	movhi	r16,2
    3c4c:	84209d04 	addi	r16,r16,-32140
    3c50:	003ee106 	br	37d8 <__alt_mem_Onchip_SRAM+0xf80037d8>
    3c54:	d9402d17 	ldw	r5,180(sp)
    3c58:	d9801e04 	addi	r6,sp,120
    3c5c:	9809883a 	mov	r4,r19
    3c60:	000a7500 	call	a750 <__ssprint_r>
    3c64:	103a081e 	bne	r2,zero,2488 <__alt_mem_Onchip_SRAM+0xf8002488>
    3c68:	dc402617 	ldw	r17,152(sp)
    3c6c:	d8c02017 	ldw	r3,128(sp)
    3c70:	da000404 	addi	r8,sp,16
    3c74:	003f4306 	br	3984 <__alt_mem_Onchip_SRAM+0xf8003984>
    3c78:	01400184 	movi	r5,6
    3c7c:	d9402a15 	stw	r5,168(sp)
    3c80:	003f9506 	br	3ad8 <__alt_mem_Onchip_SRAM+0xf8003ad8>
    3c84:	d8c02e17 	ldw	r3,184(sp)
    3c88:	1d000017 	ldw	r20,0(r3)
    3c8c:	18c00104 	addi	r3,r3,4
    3c90:	d8c02e15 	stw	r3,184(sp)
    3c94:	a02dd7fa 	srai	r22,r20,31
    3c98:	b005883a 	mov	r2,r22
    3c9c:	003a7606 	br	2678 <__alt_mem_Onchip_SRAM+0xf8002678>
    3ca0:	d9002e17 	ldw	r4,184(sp)
    3ca4:	002d883a 	mov	r22,zero
    3ca8:	25000017 	ldw	r20,0(r4)
    3cac:	21000104 	addi	r4,r4,4
    3cb0:	d9002e15 	stw	r4,184(sp)
    3cb4:	003bdd06 	br	2c2c <__alt_mem_Onchip_SRAM+0xf8002c2c>
    3cb8:	9480100c 	andi	r18,r18,64
    3cbc:	90006e26 	beq	r18,zero,3e78 <___svfprintf_internal_r+0x1d8c>
    3cc0:	d9402e17 	ldw	r5,184(sp)
    3cc4:	d8c02f17 	ldw	r3,188(sp)
    3cc8:	28800017 	ldw	r2,0(r5)
    3ccc:	29400104 	addi	r5,r5,4
    3cd0:	d9402e15 	stw	r5,184(sp)
    3cd4:	10c0000d 	sth	r3,0(r2)
    3cd8:	00392f06 	br	2198 <__alt_mem_Onchip_SRAM+0xf8002198>
    3cdc:	d9402d17 	ldw	r5,180(sp)
    3ce0:	d9801e04 	addi	r6,sp,120
    3ce4:	9809883a 	mov	r4,r19
    3ce8:	000a7500 	call	a750 <__ssprint_r>
    3cec:	1039e61e 	bne	r2,zero,2488 <__alt_mem_Onchip_SRAM+0xf8002488>
    3cf0:	d8c02017 	ldw	r3,128(sp)
    3cf4:	d8801f17 	ldw	r2,124(sp)
    3cf8:	da000404 	addi	r8,sp,16
    3cfc:	d9403317 	ldw	r5,204(sp)
    3d00:	10800044 	addi	r2,r2,1
    3d04:	44000015 	stw	r16,0(r8)
    3d08:	28c7883a 	add	r3,r5,r3
    3d0c:	003b5506 	br	2a64 <__alt_mem_Onchip_SRAM+0xf8002a64>
    3d10:	8009883a 	mov	r4,r16
    3d14:	df003e15 	stw	fp,248(sp)
    3d18:	00020540 	call	2054 <strlen>
    3d1c:	d8802b15 	stw	r2,172(sp)
    3d20:	da003e17 	ldw	r8,248(sp)
    3d24:	103c160e 	bge	r2,zero,2d80 <__alt_mem_Onchip_SRAM+0xf8002d80>
    3d28:	0005883a 	mov	r2,zero
    3d2c:	003c1406 	br	2d80 <__alt_mem_Onchip_SRAM+0xf8002d80>
    3d30:	00bfffc4 	movi	r2,-1
    3d34:	0039d906 	br	249c <__alt_mem_Onchip_SRAM+0xf800249c>
    3d38:	010000b4 	movhi	r4,2
    3d3c:	2120af84 	addi	r4,r4,-32066
    3d40:	d9003515 	stw	r4,212(sp)
    3d44:	003ae406 	br	28d8 <__alt_mem_Onchip_SRAM+0xf80028d8>
    3d48:	013fffc4 	movi	r4,-1
    3d4c:	0039fa06 	br	2538 <__alt_mem_Onchip_SRAM+0xf8002538>
    3d50:	d9402d17 	ldw	r5,180(sp)
    3d54:	d9801e04 	addi	r6,sp,120
    3d58:	9809883a 	mov	r4,r19
    3d5c:	000a7500 	call	a750 <__ssprint_r>
    3d60:	1039c91e 	bne	r2,zero,2488 <__alt_mem_Onchip_SRAM+0xf8002488>
    3d64:	d8c02017 	ldw	r3,128(sp)
    3d68:	da000404 	addi	r8,sp,16
    3d6c:	003d8406 	br	3380 <__alt_mem_Onchip_SRAM+0xf8003380>
    3d70:	0023883a 	mov	r17,zero
    3d74:	003d8306 	br	3384 <__alt_mem_Onchip_SRAM+0xf8003384>
    3d78:	010000b4 	movhi	r4,2
    3d7c:	2120ab84 	addi	r4,r4,-32082
    3d80:	d9002c15 	stw	r4,176(sp)
    3d84:	d9002c17 	ldw	r4,176(sp)
    3d88:	1c47883a 	add	r3,r3,r17
    3d8c:	10800044 	addi	r2,r2,1
    3d90:	41000015 	stw	r4,0(r8)
    3d94:	44400115 	stw	r17,4(r8)
    3d98:	d8c02015 	stw	r3,128(sp)
    3d9c:	d8801f15 	stw	r2,124(sp)
    3da0:	010001c4 	movi	r4,7
    3da4:	20bfcd16 	blt	r4,r2,3cdc <__alt_mem_Onchip_SRAM+0xf8003cdc>
    3da8:	42000204 	addi	r8,r8,8
    3dac:	003fd306 	br	3cfc <__alt_mem_Onchip_SRAM+0xf8003cfc>
    3db0:	d9402d17 	ldw	r5,180(sp)
    3db4:	d9801e04 	addi	r6,sp,120
    3db8:	9809883a 	mov	r4,r19
    3dbc:	000a7500 	call	a750 <__ssprint_r>
    3dc0:	1039b11e 	bne	r2,zero,2488 <__alt_mem_Onchip_SRAM+0xf8002488>
    3dc4:	d8802617 	ldw	r2,152(sp)
    3dc8:	d8c02017 	ldw	r3,128(sp)
    3dcc:	da000404 	addi	r8,sp,16
    3dd0:	003e1c06 	br	3644 <__alt_mem_Onchip_SRAM+0xf8003644>
    3dd4:	d8802a17 	ldw	r2,168(sp)
    3dd8:	00c00184 	movi	r3,6
    3ddc:	1880012e 	bgeu	r3,r2,3de4 <___svfprintf_internal_r+0x1cf8>
    3de0:	1805883a 	mov	r2,r3
    3de4:	d8802b15 	stw	r2,172(sp)
    3de8:	1000f316 	blt	r2,zero,41b8 <___svfprintf_internal_r+0x20cc>
    3dec:	040000b4 	movhi	r16,2
    3df0:	d8802915 	stw	r2,164(sp)
    3df4:	dd002e15 	stw	r20,184(sp)
    3df8:	d8002a15 	stw	zero,168(sp)
    3dfc:	d8003215 	stw	zero,200(sp)
    3e00:	8420a904 	addi	r16,r16,-32092
    3e04:	0039883a 	mov	fp,zero
    3e08:	003a7d06 	br	2800 <__alt_mem_Onchip_SRAM+0xf8002800>
    3e0c:	010000b4 	movhi	r4,2
    3e10:	2120af84 	addi	r4,r4,-32066
    3e14:	d9003515 	stw	r4,212(sp)
    3e18:	003b3d06 	br	2b10 <__alt_mem_Onchip_SRAM+0xf8002b10>
    3e1c:	d9402d17 	ldw	r5,180(sp)
    3e20:	d9801e04 	addi	r6,sp,120
    3e24:	9809883a 	mov	r4,r19
    3e28:	000a7500 	call	a750 <__ssprint_r>
    3e2c:	1039961e 	bne	r2,zero,2488 <__alt_mem_Onchip_SRAM+0xf8002488>
    3e30:	d8802617 	ldw	r2,152(sp)
    3e34:	d9403317 	ldw	r5,204(sp)
    3e38:	d8c02017 	ldw	r3,128(sp)
    3e3c:	da000404 	addi	r8,sp,16
    3e40:	2885c83a 	sub	r2,r5,r2
    3e44:	003e1006 	br	3688 <__alt_mem_Onchip_SRAM+0xf8003688>
    3e48:	00800044 	movi	r2,1
    3e4c:	10803fcc 	andi	r2,r2,255
    3e50:	00c00044 	movi	r3,1
    3e54:	10fa1026 	beq	r2,r3,2698 <__alt_mem_Onchip_SRAM+0xf8002698>
    3e58:	00c00084 	movi	r3,2
    3e5c:	10fb8226 	beq	r2,r3,2c68 <__alt_mem_Onchip_SRAM+0xf8002c68>
    3e60:	003a4206 	br	276c <__alt_mem_Onchip_SRAM+0xf800276c>
    3e64:	0021883a 	mov	r16,zero
    3e68:	003e0806 	br	368c <__alt_mem_Onchip_SRAM+0xf800368c>
    3e6c:	07000b44 	movi	fp,45
    3e70:	df002785 	stb	fp,158(sp)
    3e74:	0039e306 	br	2604 <__alt_mem_Onchip_SRAM+0xf8002604>
    3e78:	d9002e17 	ldw	r4,184(sp)
    3e7c:	d9402f17 	ldw	r5,188(sp)
    3e80:	20800017 	ldw	r2,0(r4)
    3e84:	21000104 	addi	r4,r4,4
    3e88:	d9002e15 	stw	r4,184(sp)
    3e8c:	11400015 	stw	r5,0(r2)
    3e90:	0038c106 	br	2198 <__alt_mem_Onchip_SRAM+0xf8002198>
    3e94:	00c00b44 	movi	r3,45
    3e98:	d8c02785 	stb	r3,158(sp)
    3e9c:	d8802915 	stw	r2,164(sp)
    3ea0:	dc802c17 	ldw	r18,176(sp)
    3ea4:	d8002a15 	stw	zero,168(sp)
    3ea8:	07000b44 	movi	fp,45
    3eac:	003a5106 	br	27f4 <__alt_mem_Onchip_SRAM+0xf80027f4>
    3eb0:	9080004c 	andi	r2,r18,1
    3eb4:	1000941e 	bne	r2,zero,4108 <___svfprintf_internal_r+0x201c>
    3eb8:	d8802117 	ldw	r2,132(sp)
    3ebc:	1405c83a 	sub	r2,r2,r16
    3ec0:	d8803315 	stw	r2,204(sp)
    3ec4:	b441151e 	bne	r22,r17,431c <___svfprintf_internal_r+0x2230>
    3ec8:	dd802617 	ldw	r22,152(sp)
    3ecc:	00bfff44 	movi	r2,-3
    3ed0:	b0801a16 	blt	r22,r2,3f3c <___svfprintf_internal_r+0x1e50>
    3ed4:	d9402a17 	ldw	r5,168(sp)
    3ed8:	2d801816 	blt	r5,r22,3f3c <___svfprintf_internal_r+0x1e50>
    3edc:	dd803215 	stw	r22,200(sp)
    3ee0:	003f3a06 	br	3bcc <__alt_mem_Onchip_SRAM+0xf8003bcc>
    3ee4:	1025883a 	mov	r18,r2
    3ee8:	0039883a 	mov	fp,zero
    3eec:	00800084 	movi	r2,2
    3ef0:	003fd606 	br	3e4c <__alt_mem_Onchip_SRAM+0xf8003e4c>
    3ef4:	9080004c 	andi	r2,r18,1
    3ef8:	103f191e 	bne	r2,zero,3b60 <__alt_mem_Onchip_SRAM+0xf8003b60>
    3efc:	d8802117 	ldw	r2,132(sp)
    3f00:	003f2806 	br	3ba4 <__alt_mem_Onchip_SRAM+0xf8003ba4>
    3f04:	010000b4 	movhi	r4,2
    3f08:	2120ab84 	addi	r4,r4,-32082
    3f0c:	d9002c15 	stw	r4,176(sp)
    3f10:	003c7c06 	br	3104 <__alt_mem_Onchip_SRAM+0xf8003104>
    3f14:	e005883a 	mov	r2,fp
    3f18:	003f2206 	br	3ba4 <__alt_mem_Onchip_SRAM+0xf8003ba4>
    3f1c:	d9002a17 	ldw	r4,168(sp)
    3f20:	df002783 	ldbu	fp,158(sp)
    3f24:	dd002e15 	stw	r20,184(sp)
    3f28:	d9002915 	stw	r4,164(sp)
    3f2c:	d9002b15 	stw	r4,172(sp)
    3f30:	d8002a15 	stw	zero,168(sp)
    3f34:	d8003215 	stw	zero,200(sp)
    3f38:	003a2a06 	br	27e4 <__alt_mem_Onchip_SRAM+0xf80027e4>
    3f3c:	8c7fff84 	addi	r17,r17,-2
    3f40:	b5bfffc4 	addi	r22,r22,-1
    3f44:	dd802615 	stw	r22,152(sp)
    3f48:	dc4022c5 	stb	r17,139(sp)
    3f4c:	b000c316 	blt	r22,zero,425c <___svfprintf_internal_r+0x2170>
    3f50:	00800ac4 	movi	r2,43
    3f54:	d8802305 	stb	r2,140(sp)
    3f58:	00800244 	movi	r2,9
    3f5c:	15806e16 	blt	r2,r22,4118 <___svfprintf_internal_r+0x202c>
    3f60:	00800c04 	movi	r2,48
    3f64:	b5800c04 	addi	r22,r22,48
    3f68:	d8802345 	stb	r2,141(sp)
    3f6c:	dd802385 	stb	r22,142(sp)
    3f70:	d88023c4 	addi	r2,sp,143
    3f74:	df0022c4 	addi	fp,sp,139
    3f78:	d8c03317 	ldw	r3,204(sp)
    3f7c:	1739c83a 	sub	fp,r2,fp
    3f80:	d9003317 	ldw	r4,204(sp)
    3f84:	e0c7883a 	add	r3,fp,r3
    3f88:	df003b15 	stw	fp,236(sp)
    3f8c:	d8c02b15 	stw	r3,172(sp)
    3f90:	00800044 	movi	r2,1
    3f94:	1100b70e 	bge	r2,r4,4274 <___svfprintf_internal_r+0x2188>
    3f98:	d8c02b17 	ldw	r3,172(sp)
    3f9c:	18c00044 	addi	r3,r3,1
    3fa0:	d8c02b15 	stw	r3,172(sp)
    3fa4:	1805883a 	mov	r2,r3
    3fa8:	1800b016 	blt	r3,zero,426c <___svfprintf_internal_r+0x2180>
    3fac:	d8003215 	stw	zero,200(sp)
    3fb0:	003f1006 	br	3bf4 <__alt_mem_Onchip_SRAM+0xf8003bf4>
    3fb4:	d8802a17 	ldw	r2,168(sp)
    3fb8:	103ec71e 	bne	r2,zero,3ad8 <__alt_mem_Onchip_SRAM+0xf8003ad8>
    3fbc:	dc002a15 	stw	r16,168(sp)
    3fc0:	003ec506 	br	3ad8 <__alt_mem_Onchip_SRAM+0xf8003ad8>
    3fc4:	d9402d17 	ldw	r5,180(sp)
    3fc8:	d9801e04 	addi	r6,sp,120
    3fcc:	9809883a 	mov	r4,r19
    3fd0:	000a7500 	call	a750 <__ssprint_r>
    3fd4:	10392c1e 	bne	r2,zero,2488 <__alt_mem_Onchip_SRAM+0xf8002488>
    3fd8:	dc402617 	ldw	r17,152(sp)
    3fdc:	d8c02017 	ldw	r3,128(sp)
    3fe0:	d8801f17 	ldw	r2,124(sp)
    3fe4:	da000404 	addi	r8,sp,16
    3fe8:	003e7706 	br	39c8 <__alt_mem_Onchip_SRAM+0xf80039c8>
    3fec:	182f883a 	mov	r23,r3
    3ff0:	d8002a15 	stw	zero,168(sp)
    3ff4:	00389306 	br	2244 <__alt_mem_Onchip_SRAM+0xf8002244>
    3ff8:	d8c02a17 	ldw	r3,168(sp)
    3ffc:	d8802104 	addi	r2,sp,132
    4000:	d8800315 	stw	r2,12(sp)
    4004:	d9403617 	ldw	r5,216(sp)
    4008:	d8802504 	addi	r2,sp,148
    400c:	d8800215 	stw	r2,8(sp)
    4010:	d8802604 	addi	r2,sp,152
    4014:	d8c00015 	stw	r3,0(sp)
    4018:	9809883a 	mov	r4,r19
    401c:	d8800115 	stw	r2,4(sp)
    4020:	01c000c4 	movi	r7,3
    4024:	a00d883a 	mov	r6,r20
    4028:	da003e15 	stw	r8,248(sp)
    402c:	0006b280 	call	6b28 <_dtoa_r>
    4030:	d9002a17 	ldw	r4,168(sp)
    4034:	da003e17 	ldw	r8,248(sp)
    4038:	1021883a 	mov	r16,r2
    403c:	1139883a 	add	fp,r2,r4
    4040:	2007883a 	mov	r3,r4
    4044:	81000007 	ldb	r4,0(r16)
    4048:	00800c04 	movi	r2,48
    404c:	20806f26 	beq	r4,r2,420c <___svfprintf_internal_r+0x2120>
    4050:	d8c02617 	ldw	r3,152(sp)
    4054:	e0f9883a 	add	fp,fp,r3
    4058:	003ec206 	br	3b64 <__alt_mem_Onchip_SRAM+0xf8003b64>
    405c:	00c00b44 	movi	r3,45
    4060:	2520003c 	xorhi	r20,r4,32768
    4064:	d8c02905 	stb	r3,164(sp)
    4068:	003ea106 	br	3af0 <__alt_mem_Onchip_SRAM+0xf8003af0>
    406c:	d8c03217 	ldw	r3,200(sp)
    4070:	00c0890e 	bge	zero,r3,4298 <___svfprintf_internal_r+0x21ac>
    4074:	00800044 	movi	r2,1
    4078:	d9003317 	ldw	r4,204(sp)
    407c:	1105883a 	add	r2,r2,r4
    4080:	d8802b15 	stw	r2,172(sp)
    4084:	10005f16 	blt	r2,zero,4204 <___svfprintf_internal_r+0x2118>
    4088:	044019c4 	movi	r17,103
    408c:	003ed906 	br	3bf4 <__alt_mem_Onchip_SRAM+0xf8003bf4>
    4090:	d9002a17 	ldw	r4,168(sp)
    4094:	20c00044 	addi	r3,r4,1
    4098:	003e9c06 	br	3b0c <__alt_mem_Onchip_SRAM+0xf8003b0c>
    409c:	d9002a17 	ldw	r4,168(sp)
    40a0:	00c0680e 	bge	zero,r3,4244 <___svfprintf_internal_r+0x2158>
    40a4:	2000461e 	bne	r4,zero,41c0 <___svfprintf_internal_r+0x20d4>
    40a8:	9480004c 	andi	r18,r18,1
    40ac:	9000441e 	bne	r18,zero,41c0 <___svfprintf_internal_r+0x20d4>
    40b0:	1805883a 	mov	r2,r3
    40b4:	1800a116 	blt	r3,zero,433c <___svfprintf_internal_r+0x2250>
    40b8:	d8c03217 	ldw	r3,200(sp)
    40bc:	d8c02b15 	stw	r3,172(sp)
    40c0:	003ecc06 	br	3bf4 <__alt_mem_Onchip_SRAM+0xf8003bf4>
    40c4:	d9402a17 	ldw	r5,168(sp)
    40c8:	d8802104 	addi	r2,sp,132
    40cc:	d8800315 	stw	r2,12(sp)
    40d0:	d9400015 	stw	r5,0(sp)
    40d4:	d8802504 	addi	r2,sp,148
    40d8:	d9403617 	ldw	r5,216(sp)
    40dc:	d8800215 	stw	r2,8(sp)
    40e0:	d8802604 	addi	r2,sp,152
    40e4:	d8800115 	stw	r2,4(sp)
    40e8:	01c000c4 	movi	r7,3
    40ec:	a00d883a 	mov	r6,r20
    40f0:	9809883a 	mov	r4,r19
    40f4:	da003e15 	stw	r8,248(sp)
    40f8:	0006b280 	call	6b28 <_dtoa_r>
    40fc:	d8c02a17 	ldw	r3,168(sp)
    4100:	da003e17 	ldw	r8,248(sp)
    4104:	1021883a 	mov	r16,r2
    4108:	00801184 	movi	r2,70
    410c:	80f9883a 	add	fp,r16,r3
    4110:	88bfcc26 	beq	r17,r2,4044 <__alt_mem_Onchip_SRAM+0xf8004044>
    4114:	003e9306 	br	3b64 <__alt_mem_Onchip_SRAM+0xf8003b64>
    4118:	df0022c4 	addi	fp,sp,139
    411c:	dc002a15 	stw	r16,168(sp)
    4120:	9829883a 	mov	r20,r19
    4124:	e021883a 	mov	r16,fp
    4128:	4027883a 	mov	r19,r8
    412c:	b009883a 	mov	r4,r22
    4130:	01400284 	movi	r5,10
    4134:	00014380 	call	1438 <__modsi3>
    4138:	10800c04 	addi	r2,r2,48
    413c:	843fffc4 	addi	r16,r16,-1
    4140:	b009883a 	mov	r4,r22
    4144:	01400284 	movi	r5,10
    4148:	80800005 	stb	r2,0(r16)
    414c:	00013b40 	call	13b4 <__divsi3>
    4150:	102d883a 	mov	r22,r2
    4154:	00800244 	movi	r2,9
    4158:	15bff416 	blt	r2,r22,412c <__alt_mem_Onchip_SRAM+0xf800412c>
    415c:	9811883a 	mov	r8,r19
    4160:	b0800c04 	addi	r2,r22,48
    4164:	a027883a 	mov	r19,r20
    4168:	8029883a 	mov	r20,r16
    416c:	a17fffc4 	addi	r5,r20,-1
    4170:	a0bfffc5 	stb	r2,-1(r20)
    4174:	dc002a17 	ldw	r16,168(sp)
    4178:	2f00782e 	bgeu	r5,fp,435c <___svfprintf_internal_r+0x2270>
    417c:	d9c02384 	addi	r7,sp,142
    4180:	3d0fc83a 	sub	r7,r7,r20
    4184:	d9002344 	addi	r4,sp,141
    4188:	e1cf883a 	add	r7,fp,r7
    418c:	00000106 	br	4194 <___svfprintf_internal_r+0x20a8>
    4190:	28800003 	ldbu	r2,0(r5)
    4194:	20800005 	stb	r2,0(r4)
    4198:	21000044 	addi	r4,r4,1
    419c:	29400044 	addi	r5,r5,1
    41a0:	21fffb1e 	bne	r4,r7,4190 <__alt_mem_Onchip_SRAM+0xf8004190>
    41a4:	d8802304 	addi	r2,sp,140
    41a8:	1505c83a 	sub	r2,r2,r20
    41ac:	d8c02344 	addi	r3,sp,141
    41b0:	1885883a 	add	r2,r3,r2
    41b4:	003f7006 	br	3f78 <__alt_mem_Onchip_SRAM+0xf8003f78>
    41b8:	0005883a 	mov	r2,zero
    41bc:	003f0b06 	br	3dec <__alt_mem_Onchip_SRAM+0xf8003dec>
    41c0:	d9002a17 	ldw	r4,168(sp)
    41c4:	d8c03217 	ldw	r3,200(sp)
    41c8:	20800044 	addi	r2,r4,1
    41cc:	1885883a 	add	r2,r3,r2
    41d0:	d8802b15 	stw	r2,172(sp)
    41d4:	103e870e 	bge	r2,zero,3bf4 <__alt_mem_Onchip_SRAM+0xf8003bf4>
    41d8:	0005883a 	mov	r2,zero
    41dc:	003e8506 	br	3bf4 <__alt_mem_Onchip_SRAM+0xf8003bf4>
    41e0:	010000b4 	movhi	r4,2
    41e4:	2120ab84 	addi	r4,r4,-32082
    41e8:	d9002c15 	stw	r4,176(sp)
    41ec:	003cc506 	br	3504 <__alt_mem_Onchip_SRAM+0xf8003504>
    41f0:	d8c03217 	ldw	r3,200(sp)
    41f4:	18c00044 	addi	r3,r3,1
    41f8:	d8c02b15 	stw	r3,172(sp)
    41fc:	1805883a 	mov	r2,r3
    4200:	183fa10e 	bge	r3,zero,4088 <__alt_mem_Onchip_SRAM+0xf8004088>
    4204:	0005883a 	mov	r2,zero
    4208:	003f9f06 	br	4088 <__alt_mem_Onchip_SRAM+0xf8004088>
    420c:	d9003617 	ldw	r4,216(sp)
    4210:	000d883a 	mov	r6,zero
    4214:	000f883a 	mov	r7,zero
    4218:	a00b883a 	mov	r5,r20
    421c:	d8c03d15 	stw	r3,244(sp)
    4220:	da003e15 	stw	r8,248(sp)
    4224:	00107d40 	call	107d4 <__eqdf2>
    4228:	d8c03d17 	ldw	r3,244(sp)
    422c:	da003e17 	ldw	r8,248(sp)
    4230:	103f8726 	beq	r2,zero,4050 <__alt_mem_Onchip_SRAM+0xf8004050>
    4234:	00800044 	movi	r2,1
    4238:	10c7c83a 	sub	r3,r2,r3
    423c:	d8c02615 	stw	r3,152(sp)
    4240:	003f8406 	br	4054 <__alt_mem_Onchip_SRAM+0xf8004054>
    4244:	20000e1e 	bne	r4,zero,4280 <___svfprintf_internal_r+0x2194>
    4248:	9480004c 	andi	r18,r18,1
    424c:	90000c1e 	bne	r18,zero,4280 <___svfprintf_internal_r+0x2194>
    4250:	00800044 	movi	r2,1
    4254:	d8802b15 	stw	r2,172(sp)
    4258:	003e6606 	br	3bf4 <__alt_mem_Onchip_SRAM+0xf8003bf4>
    425c:	00800b44 	movi	r2,45
    4260:	05adc83a 	sub	r22,zero,r22
    4264:	d8802305 	stb	r2,140(sp)
    4268:	003f3b06 	br	3f58 <__alt_mem_Onchip_SRAM+0xf8003f58>
    426c:	0005883a 	mov	r2,zero
    4270:	003f4e06 	br	3fac <__alt_mem_Onchip_SRAM+0xf8003fac>
    4274:	90a4703a 	and	r18,r18,r2
    4278:	903f4a26 	beq	r18,zero,3fa4 <__alt_mem_Onchip_SRAM+0xf8003fa4>
    427c:	003f4606 	br	3f98 <__alt_mem_Onchip_SRAM+0xf8003f98>
    4280:	d8c02a17 	ldw	r3,168(sp)
    4284:	18c00084 	addi	r3,r3,2
    4288:	d8c02b15 	stw	r3,172(sp)
    428c:	1805883a 	mov	r2,r3
    4290:	183e580e 	bge	r3,zero,3bf4 <__alt_mem_Onchip_SRAM+0xf8003bf4>
    4294:	003fd006 	br	41d8 <__alt_mem_Onchip_SRAM+0xf80041d8>
    4298:	00800084 	movi	r2,2
    429c:	10c5c83a 	sub	r2,r2,r3
    42a0:	003f7506 	br	4078 <__alt_mem_Onchip_SRAM+0xf8004078>
    42a4:	d9402e17 	ldw	r5,184(sp)
    42a8:	d9002e17 	ldw	r4,184(sp)
    42ac:	bc400043 	ldbu	r17,1(r23)
    42b0:	29400017 	ldw	r5,0(r5)
    42b4:	20800104 	addi	r2,r4,4
    42b8:	d8802e15 	stw	r2,184(sp)
    42bc:	d9402a15 	stw	r5,168(sp)
    42c0:	182f883a 	mov	r23,r3
    42c4:	283df10e 	bge	r5,zero,3a8c <__alt_mem_Onchip_SRAM+0xf8003a8c>
    42c8:	8c403fcc 	andi	r17,r17,255
    42cc:	017fffc4 	movi	r5,-1
    42d0:	8c40201c 	xori	r17,r17,128
    42d4:	d9402a15 	stw	r5,168(sp)
    42d8:	8c7fe004 	addi	r17,r17,-128
    42dc:	0037d806 	br	2240 <__alt_mem_Onchip_SRAM+0xf8002240>
    42e0:	9080004c 	andi	r2,r18,1
    42e4:	0039883a 	mov	fp,zero
    42e8:	10000726 	beq	r2,zero,4308 <___svfprintf_internal_r+0x221c>
    42ec:	d8c02817 	ldw	r3,160(sp)
    42f0:	dc001dc4 	addi	r16,sp,119
    42f4:	00800c04 	movi	r2,48
    42f8:	1c07c83a 	sub	r3,r3,r16
    42fc:	d8801dc5 	stb	r2,119(sp)
    4300:	d8c02b15 	stw	r3,172(sp)
    4304:	00393106 	br	27cc <__alt_mem_Onchip_SRAM+0xf80027cc>
    4308:	d8002b15 	stw	zero,172(sp)
    430c:	dc001e04 	addi	r16,sp,120
    4310:	00392e06 	br	27cc <__alt_mem_Onchip_SRAM+0xf80027cc>
    4314:	0005883a 	mov	r2,zero
    4318:	003e3306 	br	3be8 <__alt_mem_Onchip_SRAM+0xf8003be8>
    431c:	dd802617 	ldw	r22,152(sp)
    4320:	003f0706 	br	3f40 <__alt_mem_Onchip_SRAM+0xf8003f40>
    4324:	d8c02b03 	ldbu	r3,172(sp)
    4328:	d8c02785 	stb	r3,158(sp)
    432c:	003a3506 	br	2c04 <__alt_mem_Onchip_SRAM+0xf8002c04>
    4330:	d8c02b03 	ldbu	r3,172(sp)
    4334:	d8c02785 	stb	r3,158(sp)
    4338:	003a1706 	br	2b98 <__alt_mem_Onchip_SRAM+0xf8002b98>
    433c:	0005883a 	mov	r2,zero
    4340:	003f5d06 	br	40b8 <__alt_mem_Onchip_SRAM+0xf80040b8>
    4344:	d8c02b03 	ldbu	r3,172(sp)
    4348:	d8c02785 	stb	r3,158(sp)
    434c:	0038f306 	br	271c <__alt_mem_Onchip_SRAM+0xf800271c>
    4350:	d8c02b03 	ldbu	r3,172(sp)
    4354:	d8c02785 	stb	r3,158(sp)
    4358:	0038be06 	br	2654 <__alt_mem_Onchip_SRAM+0xf8002654>
    435c:	d8802344 	addi	r2,sp,141
    4360:	003f0506 	br	3f78 <__alt_mem_Onchip_SRAM+0xf8003f78>
    4364:	d8c02b03 	ldbu	r3,172(sp)
    4368:	d8c02785 	stb	r3,158(sp)
    436c:	00388b06 	br	259c <__alt_mem_Onchip_SRAM+0xf800259c>
    4370:	d8c02b03 	ldbu	r3,172(sp)
    4374:	d8c02785 	stb	r3,158(sp)
    4378:	003ad706 	br	2ed8 <__alt_mem_Onchip_SRAM+0xf8002ed8>
    437c:	d9403917 	ldw	r5,228(sp)
    4380:	00800304 	movi	r2,12
    4384:	28800015 	stw	r2,0(r5)
    4388:	00bfffc4 	movi	r2,-1
    438c:	00384306 	br	249c <__alt_mem_Onchip_SRAM+0xf800249c>
    4390:	d8c02b03 	ldbu	r3,172(sp)
    4394:	d8c02785 	stb	r3,158(sp)
    4398:	003ab606 	br	2e74 <__alt_mem_Onchip_SRAM+0xf8002e74>
    439c:	d8c02b03 	ldbu	r3,172(sp)
    43a0:	d8c02785 	stb	r3,158(sp)
    43a4:	003a8906 	br	2dcc <__alt_mem_Onchip_SRAM+0xf8002dcc>

000043a8 <time>:
    43a8:	008000b4 	movhi	r2,2
    43ac:	defffc04 	addi	sp,sp,-16
    43b0:	10a88304 	addi	r2,r2,-24052
    43b4:	dc000215 	stw	r16,8(sp)
    43b8:	2021883a 	mov	r16,r4
    43bc:	11000017 	ldw	r4,0(r2)
    43c0:	000d883a 	mov	r6,zero
    43c4:	d80b883a 	mov	r5,sp
    43c8:	dfc00315 	stw	ra,12(sp)
    43cc:	0008dc40 	call	8dc4 <_gettimeofday_r>
    43d0:	10000716 	blt	r2,zero,43f0 <time+0x48>
    43d4:	d8800017 	ldw	r2,0(sp)
    43d8:	80000126 	beq	r16,zero,43e0 <time+0x38>
    43dc:	80800015 	stw	r2,0(r16)
    43e0:	dfc00317 	ldw	ra,12(sp)
    43e4:	dc000217 	ldw	r16,8(sp)
    43e8:	dec00404 	addi	sp,sp,16
    43ec:	f800283a 	ret
    43f0:	00bfffc4 	movi	r2,-1
    43f4:	003ffa06 	br	43e0 <__alt_mem_Onchip_SRAM+0xf80043e0>

000043f8 <___vfprintf_internal_r>:
    43f8:	deffb804 	addi	sp,sp,-288
    43fc:	dfc04715 	stw	ra,284(sp)
    4400:	ddc04515 	stw	r23,276(sp)
    4404:	dd404315 	stw	r21,268(sp)
    4408:	d9002d15 	stw	r4,180(sp)
    440c:	282f883a 	mov	r23,r5
    4410:	302b883a 	mov	r21,r6
    4414:	d9c02e15 	stw	r7,184(sp)
    4418:	df004615 	stw	fp,280(sp)
    441c:	dd804415 	stw	r22,272(sp)
    4420:	dd004215 	stw	r20,264(sp)
    4424:	dcc04115 	stw	r19,260(sp)
    4428:	dc804015 	stw	r18,256(sp)
    442c:	dc403f15 	stw	r17,252(sp)
    4430:	dc003e15 	stw	r16,248(sp)
    4434:	0008ecc0 	call	8ecc <_localeconv_r>
    4438:	10800017 	ldw	r2,0(r2)
    443c:	1009883a 	mov	r4,r2
    4440:	d8803415 	stw	r2,208(sp)
    4444:	00020540 	call	2054 <strlen>
    4448:	d8803715 	stw	r2,220(sp)
    444c:	d8802d17 	ldw	r2,180(sp)
    4450:	10000226 	beq	r2,zero,445c <___vfprintf_internal_r+0x64>
    4454:	10800e17 	ldw	r2,56(r2)
    4458:	1000fb26 	beq	r2,zero,4848 <___vfprintf_internal_r+0x450>
    445c:	b880030b 	ldhu	r2,12(r23)
    4460:	10c8000c 	andi	r3,r2,8192
    4464:	1800061e 	bne	r3,zero,4480 <___vfprintf_internal_r+0x88>
    4468:	b9001917 	ldw	r4,100(r23)
    446c:	00f7ffc4 	movi	r3,-8193
    4470:	10880014 	ori	r2,r2,8192
    4474:	20c6703a 	and	r3,r4,r3
    4478:	b880030d 	sth	r2,12(r23)
    447c:	b8c01915 	stw	r3,100(r23)
    4480:	10c0020c 	andi	r3,r2,8
    4484:	1800c326 	beq	r3,zero,4794 <___vfprintf_internal_r+0x39c>
    4488:	b8c00417 	ldw	r3,16(r23)
    448c:	1800c126 	beq	r3,zero,4794 <___vfprintf_internal_r+0x39c>
    4490:	1080068c 	andi	r2,r2,26
    4494:	00c00284 	movi	r3,10
    4498:	10c0c626 	beq	r2,r3,47b4 <___vfprintf_internal_r+0x3bc>
    449c:	d8c00404 	addi	r3,sp,16
    44a0:	050000b4 	movhi	r20,2
    44a4:	d9001e04 	addi	r4,sp,120
    44a8:	a520b384 	addi	r20,r20,-32050
    44ac:	d8c01e15 	stw	r3,120(sp)
    44b0:	d8002015 	stw	zero,128(sp)
    44b4:	d8001f15 	stw	zero,124(sp)
    44b8:	d8003315 	stw	zero,204(sp)
    44bc:	d8003615 	stw	zero,216(sp)
    44c0:	d8003815 	stw	zero,224(sp)
    44c4:	1811883a 	mov	r8,r3
    44c8:	d8003915 	stw	zero,228(sp)
    44cc:	d8003a15 	stw	zero,232(sp)
    44d0:	d8002f15 	stw	zero,188(sp)
    44d4:	d9002815 	stw	r4,160(sp)
    44d8:	a8800007 	ldb	r2,0(r21)
    44dc:	10028b26 	beq	r2,zero,4f0c <___vfprintf_internal_r+0xb14>
    44e0:	00c00944 	movi	r3,37
    44e4:	a823883a 	mov	r17,r21
    44e8:	10c0021e 	bne	r2,r3,44f4 <___vfprintf_internal_r+0xfc>
    44ec:	00001406 	br	4540 <___vfprintf_internal_r+0x148>
    44f0:	10c00326 	beq	r2,r3,4500 <___vfprintf_internal_r+0x108>
    44f4:	8c400044 	addi	r17,r17,1
    44f8:	88800007 	ldb	r2,0(r17)
    44fc:	103ffc1e 	bne	r2,zero,44f0 <__alt_mem_Onchip_SRAM+0xf80044f0>
    4500:	8d61c83a 	sub	r16,r17,r21
    4504:	80000e26 	beq	r16,zero,4540 <___vfprintf_internal_r+0x148>
    4508:	d8c02017 	ldw	r3,128(sp)
    450c:	d8801f17 	ldw	r2,124(sp)
    4510:	45400015 	stw	r21,0(r8)
    4514:	1c07883a 	add	r3,r3,r16
    4518:	10800044 	addi	r2,r2,1
    451c:	d8c02015 	stw	r3,128(sp)
    4520:	44000115 	stw	r16,4(r8)
    4524:	d8801f15 	stw	r2,124(sp)
    4528:	00c001c4 	movi	r3,7
    452c:	1880a916 	blt	r3,r2,47d4 <___vfprintf_internal_r+0x3dc>
    4530:	42000204 	addi	r8,r8,8
    4534:	d9402f17 	ldw	r5,188(sp)
    4538:	2c0b883a 	add	r5,r5,r16
    453c:	d9402f15 	stw	r5,188(sp)
    4540:	88800007 	ldb	r2,0(r17)
    4544:	1000aa26 	beq	r2,zero,47f0 <___vfprintf_internal_r+0x3f8>
    4548:	8d400044 	addi	r21,r17,1
    454c:	8c400047 	ldb	r17,1(r17)
    4550:	0021883a 	mov	r16,zero
    4554:	00bfffc4 	movi	r2,-1
    4558:	0025883a 	mov	r18,zero
    455c:	dc002905 	stb	r16,164(sp)
    4560:	d8002785 	stb	zero,158(sp)
    4564:	d8002b05 	stb	zero,172(sp)
    4568:	d8802a15 	stw	r2,168(sp)
    456c:	d8003115 	stw	zero,196(sp)
    4570:	04c01604 	movi	r19,88
    4574:	05800244 	movi	r22,9
    4578:	9021883a 	mov	r16,r18
    457c:	4039883a 	mov	fp,r8
    4580:	ad400044 	addi	r21,r21,1
    4584:	88bff804 	addi	r2,r17,-32
    4588:	98833236 	bltu	r19,r2,5254 <___vfprintf_internal_r+0xe5c>
    458c:	100490ba 	slli	r2,r2,2
    4590:	00c00034 	movhi	r3,0
    4594:	18d16904 	addi	r3,r3,17828
    4598:	10c5883a 	add	r2,r2,r3
    459c:	10800017 	ldw	r2,0(r2)
    45a0:	1000683a 	jmp	r2
    45a4:	0000514c 	andi	zero,zero,325
    45a8:	00005254 	movui	zero,329
    45ac:	00005254 	movui	zero,329
    45b0:	0000516c 	andhi	zero,zero,325
    45b4:	00005254 	movui	zero,329
    45b8:	00005254 	movui	zero,329
    45bc:	00005254 	movui	zero,329
    45c0:	00005254 	movui	zero,329
    45c4:	00005254 	movui	zero,329
    45c8:	00005254 	movui	zero,329
    45cc:	00004854 	movui	zero,289
    45d0:	0000505c 	xori	zero,zero,321
    45d4:	00005254 	movui	zero,329
    45d8:	00004718 	cmpnei	zero,zero,284
    45dc:	00004878 	rdprs	zero,zero,289
    45e0:	00005254 	movui	zero,329
    45e4:	000048c8 	cmpgei	zero,zero,291
    45e8:	000048d4 	movui	zero,291
    45ec:	000048d4 	movui	zero,291
    45f0:	000048d4 	movui	zero,291
    45f4:	000048d4 	movui	zero,291
    45f8:	000048d4 	movui	zero,291
    45fc:	000048d4 	movui	zero,291
    4600:	000048d4 	movui	zero,291
    4604:	000048d4 	movui	zero,291
    4608:	000048d4 	movui	zero,291
    460c:	00005254 	movui	zero,329
    4610:	00005254 	movui	zero,329
    4614:	00005254 	movui	zero,329
    4618:	00005254 	movui	zero,329
    461c:	00005254 	movui	zero,329
    4620:	00005254 	movui	zero,329
    4624:	00005254 	movui	zero,329
    4628:	00005254 	movui	zero,329
    462c:	00005254 	movui	zero,329
    4630:	00005254 	movui	zero,329
    4634:	00004910 	cmplti	zero,zero,292
    4638:	000049d8 	cmpnei	zero,zero,295
    463c:	00005254 	movui	zero,329
    4640:	000049d8 	cmpnei	zero,zero,295
    4644:	00005254 	movui	zero,329
    4648:	00005254 	movui	zero,329
    464c:	00005254 	movui	zero,329
    4650:	00005254 	movui	zero,329
    4654:	00004a84 	movi	zero,298
    4658:	00005254 	movui	zero,329
    465c:	00005254 	movui	zero,329
    4660:	00004a90 	cmplti	zero,zero,298
    4664:	00005254 	movui	zero,329
    4668:	00005254 	movui	zero,329
    466c:	00005254 	movui	zero,329
    4670:	00005254 	movui	zero,329
    4674:	00005254 	movui	zero,329
    4678:	00004f14 	movui	zero,316
    467c:	00005254 	movui	zero,329
    4680:	00005254 	movui	zero,329
    4684:	00004f80 	call	4f8 <generate_next_level+0x84>
    4688:	00005254 	movui	zero,329
    468c:	00005254 	movui	zero,329
    4690:	00005254 	movui	zero,329
    4694:	00005254 	movui	zero,329
    4698:	00005254 	movui	zero,329
    469c:	00005254 	movui	zero,329
    46a0:	00005254 	movui	zero,329
    46a4:	00005254 	movui	zero,329
    46a8:	00005254 	movui	zero,329
    46ac:	00005254 	movui	zero,329
    46b0:	000051f8 	rdprs	zero,zero,327
    46b4:	00005178 	rdprs	zero,zero,325
    46b8:	000049d8 	cmpnei	zero,zero,295
    46bc:	000049d8 	cmpnei	zero,zero,295
    46c0:	000049d8 	cmpnei	zero,zero,295
    46c4:	00005198 	cmpnei	zero,zero,326
    46c8:	00005178 	rdprs	zero,zero,325
    46cc:	00005254 	movui	zero,329
    46d0:	00005254 	movui	zero,329
    46d4:	000051a4 	muli	zero,zero,326
    46d8:	00005254 	movui	zero,329
    46dc:	000051b8 	rdprs	zero,zero,326
    46e0:	0000503c 	xorhi	zero,zero,320
    46e4:	00004724 	muli	zero,zero,284
    46e8:	00005074 	movhi	zero,321
    46ec:	00005254 	movui	zero,329
    46f0:	00005080 	call	508 <generate_next_level+0x94>
    46f4:	00005254 	movui	zero,329
    46f8:	000050e4 	muli	zero,zero,323
    46fc:	00005254 	movui	zero,329
    4700:	00005254 	movui	zero,329
    4704:	00005104 	movi	zero,324
    4708:	d8c03117 	ldw	r3,196(sp)
    470c:	d8802e15 	stw	r2,184(sp)
    4710:	00c7c83a 	sub	r3,zero,r3
    4714:	d8c03115 	stw	r3,196(sp)
    4718:	84000114 	ori	r16,r16,4
    471c:	ac400007 	ldb	r17,0(r21)
    4720:	003f9706 	br	4580 <__alt_mem_Onchip_SRAM+0xf8004580>
    4724:	00800c04 	movi	r2,48
    4728:	d8802705 	stb	r2,156(sp)
    472c:	00801e04 	movi	r2,120
    4730:	d8802745 	stb	r2,157(sp)
    4734:	d9002a17 	ldw	r4,168(sp)
    4738:	d8802e17 	ldw	r2,184(sp)
    473c:	d8002785 	stb	zero,158(sp)
    4740:	e011883a 	mov	r8,fp
    4744:	10c00104 	addi	r3,r2,4
    4748:	14c00017 	ldw	r19,0(r2)
    474c:	002d883a 	mov	r22,zero
    4750:	80800094 	ori	r2,r16,2
    4754:	2002ca16 	blt	r4,zero,5280 <___vfprintf_internal_r+0xe88>
    4758:	00bfdfc4 	movi	r2,-129
    475c:	80a4703a 	and	r18,r16,r2
    4760:	d8c02e15 	stw	r3,184(sp)
    4764:	94800094 	ori	r18,r18,2
    4768:	9802b41e 	bne	r19,zero,523c <___vfprintf_internal_r+0xe44>
    476c:	014000b4 	movhi	r5,2
    4770:	2960a404 	addi	r5,r5,-32112
    4774:	d9403915 	stw	r5,228(sp)
    4778:	04401e04 	movi	r17,120
    477c:	d8802a17 	ldw	r2,168(sp)
    4780:	0039883a 	mov	fp,zero
    4784:	1001fa26 	beq	r2,zero,4f70 <___vfprintf_internal_r+0xb78>
    4788:	0027883a 	mov	r19,zero
    478c:	002d883a 	mov	r22,zero
    4790:	00021906 	br	4ff8 <___vfprintf_internal_r+0xc00>
    4794:	d9002d17 	ldw	r4,180(sp)
    4798:	b80b883a 	mov	r5,r23
    479c:	00067ac0 	call	67ac <__swsetup_r>
    47a0:	1005dc1e 	bne	r2,zero,5f14 <___vfprintf_internal_r+0x1b1c>
    47a4:	b880030b 	ldhu	r2,12(r23)
    47a8:	00c00284 	movi	r3,10
    47ac:	1080068c 	andi	r2,r2,26
    47b0:	10ff3a1e 	bne	r2,r3,449c <__alt_mem_Onchip_SRAM+0xf800449c>
    47b4:	b880038f 	ldh	r2,14(r23)
    47b8:	103f3816 	blt	r2,zero,449c <__alt_mem_Onchip_SRAM+0xf800449c>
    47bc:	d9c02e17 	ldw	r7,184(sp)
    47c0:	d9002d17 	ldw	r4,180(sp)
    47c4:	a80d883a 	mov	r6,r21
    47c8:	b80b883a 	mov	r5,r23
    47cc:	00066f00 	call	66f0 <__sbprintf>
    47d0:	00001106 	br	4818 <___vfprintf_internal_r+0x420>
    47d4:	d9002d17 	ldw	r4,180(sp)
    47d8:	d9801e04 	addi	r6,sp,120
    47dc:	b80b883a 	mov	r5,r23
    47e0:	000bdbc0 	call	bdbc <__sprint_r>
    47e4:	1000081e 	bne	r2,zero,4808 <___vfprintf_internal_r+0x410>
    47e8:	da000404 	addi	r8,sp,16
    47ec:	003f5106 	br	4534 <__alt_mem_Onchip_SRAM+0xf8004534>
    47f0:	d8802017 	ldw	r2,128(sp)
    47f4:	10000426 	beq	r2,zero,4808 <___vfprintf_internal_r+0x410>
    47f8:	d9002d17 	ldw	r4,180(sp)
    47fc:	d9801e04 	addi	r6,sp,120
    4800:	b80b883a 	mov	r5,r23
    4804:	000bdbc0 	call	bdbc <__sprint_r>
    4808:	b880030b 	ldhu	r2,12(r23)
    480c:	1080100c 	andi	r2,r2,64
    4810:	1005c01e 	bne	r2,zero,5f14 <___vfprintf_internal_r+0x1b1c>
    4814:	d8802f17 	ldw	r2,188(sp)
    4818:	dfc04717 	ldw	ra,284(sp)
    481c:	df004617 	ldw	fp,280(sp)
    4820:	ddc04517 	ldw	r23,276(sp)
    4824:	dd804417 	ldw	r22,272(sp)
    4828:	dd404317 	ldw	r21,268(sp)
    482c:	dd004217 	ldw	r20,264(sp)
    4830:	dcc04117 	ldw	r19,260(sp)
    4834:	dc804017 	ldw	r18,256(sp)
    4838:	dc403f17 	ldw	r17,252(sp)
    483c:	dc003e17 	ldw	r16,248(sp)
    4840:	dec04804 	addi	sp,sp,288
    4844:	f800283a 	ret
    4848:	d9002d17 	ldw	r4,180(sp)
    484c:	00087b80 	call	87b8 <__sinit>
    4850:	003f0206 	br	445c <__alt_mem_Onchip_SRAM+0xf800445c>
    4854:	d9002e17 	ldw	r4,184(sp)
    4858:	d9402e17 	ldw	r5,184(sp)
    485c:	21000017 	ldw	r4,0(r4)
    4860:	28800104 	addi	r2,r5,4
    4864:	d9003115 	stw	r4,196(sp)
    4868:	203fa716 	blt	r4,zero,4708 <__alt_mem_Onchip_SRAM+0xf8004708>
    486c:	d8802e15 	stw	r2,184(sp)
    4870:	ac400007 	ldb	r17,0(r21)
    4874:	003f4206 	br	4580 <__alt_mem_Onchip_SRAM+0xf8004580>
    4878:	ac400007 	ldb	r17,0(r21)
    487c:	01000a84 	movi	r4,42
    4880:	a8c00044 	addi	r3,r21,1
    4884:	89075826 	beq	r17,r4,65e8 <___vfprintf_internal_r+0x21f0>
    4888:	8cbff404 	addi	r18,r17,-48
    488c:	b486ae36 	bltu	r22,r18,6348 <___vfprintf_internal_r+0x1f50>
    4890:	0009883a 	mov	r4,zero
    4894:	1823883a 	mov	r17,r3
    4898:	01400284 	movi	r5,10
    489c:	00015680 	call	1568 <__mulsi3>
    48a0:	88c00007 	ldb	r3,0(r17)
    48a4:	1489883a 	add	r4,r2,r18
    48a8:	8d400044 	addi	r21,r17,1
    48ac:	1cbff404 	addi	r18,r3,-48
    48b0:	a823883a 	mov	r17,r21
    48b4:	b4bff82e 	bgeu	r22,r18,4898 <__alt_mem_Onchip_SRAM+0xf8004898>
    48b8:	1823883a 	mov	r17,r3
    48bc:	2005f616 	blt	r4,zero,6098 <___vfprintf_internal_r+0x1ca0>
    48c0:	d9002a15 	stw	r4,168(sp)
    48c4:	003f2f06 	br	4584 <__alt_mem_Onchip_SRAM+0xf8004584>
    48c8:	84002014 	ori	r16,r16,128
    48cc:	ac400007 	ldb	r17,0(r21)
    48d0:	003f2b06 	br	4580 <__alt_mem_Onchip_SRAM+0xf8004580>
    48d4:	8cbff404 	addi	r18,r17,-48
    48d8:	d8003115 	stw	zero,196(sp)
    48dc:	0009883a 	mov	r4,zero
    48e0:	a823883a 	mov	r17,r21
    48e4:	01400284 	movi	r5,10
    48e8:	00015680 	call	1568 <__mulsi3>
    48ec:	88c00007 	ldb	r3,0(r17)
    48f0:	9089883a 	add	r4,r18,r2
    48f4:	ad400044 	addi	r21,r21,1
    48f8:	1cbff404 	addi	r18,r3,-48
    48fc:	a823883a 	mov	r17,r21
    4900:	b4bff82e 	bgeu	r22,r18,48e4 <__alt_mem_Onchip_SRAM+0xf80048e4>
    4904:	1823883a 	mov	r17,r3
    4908:	d9003115 	stw	r4,196(sp)
    490c:	003f1d06 	br	4584 <__alt_mem_Onchip_SRAM+0xf8004584>
    4910:	8025883a 	mov	r18,r16
    4914:	dc002903 	ldbu	r16,164(sp)
    4918:	e011883a 	mov	r8,fp
    491c:	84003fcc 	andi	r16,r16,255
    4920:	8007531e 	bne	r16,zero,6670 <___vfprintf_internal_r+0x2278>
    4924:	94800414 	ori	r18,r18,16
    4928:	9080080c 	andi	r2,r18,32
    492c:	1003a326 	beq	r2,zero,57bc <___vfprintf_internal_r+0x13c4>
    4930:	d9002e17 	ldw	r4,184(sp)
    4934:	20800117 	ldw	r2,4(r4)
    4938:	24c00017 	ldw	r19,0(r4)
    493c:	21000204 	addi	r4,r4,8
    4940:	d9002e15 	stw	r4,184(sp)
    4944:	102d883a 	mov	r22,r2
    4948:	10047316 	blt	r2,zero,5b18 <___vfprintf_internal_r+0x1720>
    494c:	d9002a17 	ldw	r4,168(sp)
    4950:	df002783 	ldbu	fp,158(sp)
    4954:	2003e416 	blt	r4,zero,58e8 <___vfprintf_internal_r+0x14f0>
    4958:	00ffdfc4 	movi	r3,-129
    495c:	9d84b03a 	or	r2,r19,r22
    4960:	90e4703a 	and	r18,r18,r3
    4964:	10018026 	beq	r2,zero,4f68 <___vfprintf_internal_r+0xb70>
    4968:	b003ab26 	beq	r22,zero,5818 <___vfprintf_internal_r+0x1420>
    496c:	dc402915 	stw	r17,164(sp)
    4970:	dc001e04 	addi	r16,sp,120
    4974:	b023883a 	mov	r17,r22
    4978:	402d883a 	mov	r22,r8
    497c:	9809883a 	mov	r4,r19
    4980:	880b883a 	mov	r5,r17
    4984:	01800284 	movi	r6,10
    4988:	000f883a 	mov	r7,zero
    498c:	000ef940 	call	ef94 <__umoddi3>
    4990:	10800c04 	addi	r2,r2,48
    4994:	843fffc4 	addi	r16,r16,-1
    4998:	9809883a 	mov	r4,r19
    499c:	880b883a 	mov	r5,r17
    49a0:	80800005 	stb	r2,0(r16)
    49a4:	01800284 	movi	r6,10
    49a8:	000f883a 	mov	r7,zero
    49ac:	000e9980 	call	e998 <__udivdi3>
    49b0:	1027883a 	mov	r19,r2
    49b4:	10c4b03a 	or	r2,r2,r3
    49b8:	1823883a 	mov	r17,r3
    49bc:	103fef1e 	bne	r2,zero,497c <__alt_mem_Onchip_SRAM+0xf800497c>
    49c0:	d8c02817 	ldw	r3,160(sp)
    49c4:	dc402917 	ldw	r17,164(sp)
    49c8:	b011883a 	mov	r8,r22
    49cc:	1c07c83a 	sub	r3,r3,r16
    49d0:	d8c02b15 	stw	r3,172(sp)
    49d4:	00005f06 	br	4b54 <___vfprintf_internal_r+0x75c>
    49d8:	8025883a 	mov	r18,r16
    49dc:	dc002903 	ldbu	r16,164(sp)
    49e0:	e011883a 	mov	r8,fp
    49e4:	84003fcc 	andi	r16,r16,255
    49e8:	80071e1e 	bne	r16,zero,6664 <___vfprintf_internal_r+0x226c>
    49ec:	9080020c 	andi	r2,r18,8
    49f0:	1004af26 	beq	r2,zero,5cb0 <___vfprintf_internal_r+0x18b8>
    49f4:	d9002e17 	ldw	r4,184(sp)
    49f8:	d9402e17 	ldw	r5,184(sp)
    49fc:	d8802e17 	ldw	r2,184(sp)
    4a00:	21000017 	ldw	r4,0(r4)
    4a04:	29400117 	ldw	r5,4(r5)
    4a08:	10800204 	addi	r2,r2,8
    4a0c:	d9003615 	stw	r4,216(sp)
    4a10:	d9403815 	stw	r5,224(sp)
    4a14:	d8802e15 	stw	r2,184(sp)
    4a18:	d9003617 	ldw	r4,216(sp)
    4a1c:	d9403817 	ldw	r5,224(sp)
    4a20:	da003d15 	stw	r8,244(sp)
    4a24:	04000044 	movi	r16,1
    4a28:	000a4c40 	call	a4c4 <__fpclassifyd>
    4a2c:	da003d17 	ldw	r8,244(sp)
    4a30:	1404441e 	bne	r2,r16,5b44 <___vfprintf_internal_r+0x174c>
    4a34:	d9003617 	ldw	r4,216(sp)
    4a38:	d9403817 	ldw	r5,224(sp)
    4a3c:	000d883a 	mov	r6,zero
    4a40:	000f883a 	mov	r7,zero
    4a44:	00109380 	call	10938 <__ledf2>
    4a48:	da003d17 	ldw	r8,244(sp)
    4a4c:	1005e316 	blt	r2,zero,61dc <___vfprintf_internal_r+0x1de4>
    4a50:	df002783 	ldbu	fp,158(sp)
    4a54:	008011c4 	movi	r2,71
    4a58:	1445580e 	bge	r2,r17,5fbc <___vfprintf_internal_r+0x1bc4>
    4a5c:	040000b4 	movhi	r16,2
    4a60:	84209c04 	addi	r16,r16,-32144
    4a64:	00c000c4 	movi	r3,3
    4a68:	00bfdfc4 	movi	r2,-129
    4a6c:	d8c02915 	stw	r3,164(sp)
    4a70:	90a4703a 	and	r18,r18,r2
    4a74:	d8c02b15 	stw	r3,172(sp)
    4a78:	d8002a15 	stw	zero,168(sp)
    4a7c:	d8003215 	stw	zero,200(sp)
    4a80:	00003a06 	br	4b6c <___vfprintf_internal_r+0x774>
    4a84:	84000214 	ori	r16,r16,8
    4a88:	ac400007 	ldb	r17,0(r21)
    4a8c:	003ebc06 	br	4580 <__alt_mem_Onchip_SRAM+0xf8004580>
    4a90:	8025883a 	mov	r18,r16
    4a94:	dc002903 	ldbu	r16,164(sp)
    4a98:	e011883a 	mov	r8,fp
    4a9c:	84003fcc 	andi	r16,r16,255
    4aa0:	8007001e 	bne	r16,zero,66a4 <___vfprintf_internal_r+0x22ac>
    4aa4:	94800414 	ori	r18,r18,16
    4aa8:	9080080c 	andi	r2,r18,32
    4aac:	1002fa26 	beq	r2,zero,5698 <___vfprintf_internal_r+0x12a0>
    4ab0:	d9002e17 	ldw	r4,184(sp)
    4ab4:	d9402a17 	ldw	r5,168(sp)
    4ab8:	d8002785 	stb	zero,158(sp)
    4abc:	20800204 	addi	r2,r4,8
    4ac0:	24c00017 	ldw	r19,0(r4)
    4ac4:	25800117 	ldw	r22,4(r4)
    4ac8:	2804b116 	blt	r5,zero,5d90 <___vfprintf_internal_r+0x1998>
    4acc:	013fdfc4 	movi	r4,-129
    4ad0:	9d86b03a 	or	r3,r19,r22
    4ad4:	d8802e15 	stw	r2,184(sp)
    4ad8:	9124703a 	and	r18,r18,r4
    4adc:	1802fb1e 	bne	r3,zero,56cc <___vfprintf_internal_r+0x12d4>
    4ae0:	d8c02a17 	ldw	r3,168(sp)
    4ae4:	0039883a 	mov	fp,zero
    4ae8:	1805e526 	beq	r3,zero,6280 <___vfprintf_internal_r+0x1e88>
    4aec:	0027883a 	mov	r19,zero
    4af0:	002d883a 	mov	r22,zero
    4af4:	dc001e04 	addi	r16,sp,120
    4af8:	9806d0fa 	srli	r3,r19,3
    4afc:	b008977a 	slli	r4,r22,29
    4b00:	b02cd0fa 	srli	r22,r22,3
    4b04:	9cc001cc 	andi	r19,r19,7
    4b08:	98800c04 	addi	r2,r19,48
    4b0c:	843fffc4 	addi	r16,r16,-1
    4b10:	20e6b03a 	or	r19,r4,r3
    4b14:	80800005 	stb	r2,0(r16)
    4b18:	9d86b03a 	or	r3,r19,r22
    4b1c:	183ff61e 	bne	r3,zero,4af8 <__alt_mem_Onchip_SRAM+0xf8004af8>
    4b20:	90c0004c 	andi	r3,r18,1
    4b24:	18014126 	beq	r3,zero,502c <___vfprintf_internal_r+0xc34>
    4b28:	10803fcc 	andi	r2,r2,255
    4b2c:	1080201c 	xori	r2,r2,128
    4b30:	10bfe004 	addi	r2,r2,-128
    4b34:	00c00c04 	movi	r3,48
    4b38:	10c13c26 	beq	r2,r3,502c <___vfprintf_internal_r+0xc34>
    4b3c:	80ffffc5 	stb	r3,-1(r16)
    4b40:	d8c02817 	ldw	r3,160(sp)
    4b44:	80bfffc4 	addi	r2,r16,-1
    4b48:	1021883a 	mov	r16,r2
    4b4c:	1887c83a 	sub	r3,r3,r2
    4b50:	d8c02b15 	stw	r3,172(sp)
    4b54:	d8802b17 	ldw	r2,172(sp)
    4b58:	d9002a17 	ldw	r4,168(sp)
    4b5c:	1100010e 	bge	r2,r4,4b64 <___vfprintf_internal_r+0x76c>
    4b60:	2005883a 	mov	r2,r4
    4b64:	d8802915 	stw	r2,164(sp)
    4b68:	d8003215 	stw	zero,200(sp)
    4b6c:	e7003fcc 	andi	fp,fp,255
    4b70:	e700201c 	xori	fp,fp,128
    4b74:	e73fe004 	addi	fp,fp,-128
    4b78:	e0000326 	beq	fp,zero,4b88 <___vfprintf_internal_r+0x790>
    4b7c:	d8c02917 	ldw	r3,164(sp)
    4b80:	18c00044 	addi	r3,r3,1
    4b84:	d8c02915 	stw	r3,164(sp)
    4b88:	90c0008c 	andi	r3,r18,2
    4b8c:	d8c02c15 	stw	r3,176(sp)
    4b90:	18000326 	beq	r3,zero,4ba0 <___vfprintf_internal_r+0x7a8>
    4b94:	d8c02917 	ldw	r3,164(sp)
    4b98:	18c00084 	addi	r3,r3,2
    4b9c:	d8c02915 	stw	r3,164(sp)
    4ba0:	90c0210c 	andi	r3,r18,132
    4ba4:	d8c03015 	stw	r3,192(sp)
    4ba8:	1801c51e 	bne	r3,zero,52c0 <___vfprintf_internal_r+0xec8>
    4bac:	d9003117 	ldw	r4,196(sp)
    4bb0:	d8c02917 	ldw	r3,164(sp)
    4bb4:	20e7c83a 	sub	r19,r4,r3
    4bb8:	04c1c10e 	bge	zero,r19,52c0 <___vfprintf_internal_r+0xec8>
    4bbc:	02400404 	movi	r9,16
    4bc0:	d8c02017 	ldw	r3,128(sp)
    4bc4:	d8801f17 	ldw	r2,124(sp)
    4bc8:	4cc52f0e 	bge	r9,r19,6088 <___vfprintf_internal_r+0x1c90>
    4bcc:	014000b4 	movhi	r5,2
    4bd0:	2960b784 	addi	r5,r5,-32034
    4bd4:	dc403b15 	stw	r17,236(sp)
    4bd8:	d9403515 	stw	r5,212(sp)
    4bdc:	9823883a 	mov	r17,r19
    4be0:	482d883a 	mov	r22,r9
    4be4:	9027883a 	mov	r19,r18
    4be8:	070001c4 	movi	fp,7
    4bec:	8025883a 	mov	r18,r16
    4bf0:	dc002d17 	ldw	r16,180(sp)
    4bf4:	00000306 	br	4c04 <___vfprintf_internal_r+0x80c>
    4bf8:	8c7ffc04 	addi	r17,r17,-16
    4bfc:	42000204 	addi	r8,r8,8
    4c00:	b440130e 	bge	r22,r17,4c50 <___vfprintf_internal_r+0x858>
    4c04:	010000b4 	movhi	r4,2
    4c08:	18c00404 	addi	r3,r3,16
    4c0c:	10800044 	addi	r2,r2,1
    4c10:	2120b784 	addi	r4,r4,-32034
    4c14:	41000015 	stw	r4,0(r8)
    4c18:	45800115 	stw	r22,4(r8)
    4c1c:	d8c02015 	stw	r3,128(sp)
    4c20:	d8801f15 	stw	r2,124(sp)
    4c24:	e0bff40e 	bge	fp,r2,4bf8 <__alt_mem_Onchip_SRAM+0xf8004bf8>
    4c28:	d9801e04 	addi	r6,sp,120
    4c2c:	b80b883a 	mov	r5,r23
    4c30:	8009883a 	mov	r4,r16
    4c34:	000bdbc0 	call	bdbc <__sprint_r>
    4c38:	103ef31e 	bne	r2,zero,4808 <__alt_mem_Onchip_SRAM+0xf8004808>
    4c3c:	8c7ffc04 	addi	r17,r17,-16
